	.cpu cortex-m4
	.arch armv7e-m
	.fpu fpv4-sp-d16
	.eabi_attribute 27, 1
	.eabi_attribute 28, 1
	.eabi_attribute 20, 1
	.eabi_attribute 21, 1
	.eabi_attribute 23, 3
	.eabi_attribute 24, 1
	.eabi_attribute 25, 1
	.eabi_attribute 26, 1
	.eabi_attribute 30, 6
	.eabi_attribute 34, 1
	.eabi_attribute 38, 1
	.eabi_attribute 18, 4
	.file	"app_timer.c"
	.text
.Ltext0:
	.cfi_sections	.debug_frame
	.file 1 "/home/sjo/dwm1001-examples/nRF5_SDK_14.2.0/components/libraries/timer/app_timer.c"
	.section	.text.__NVIC_EnableIRQ,"ax",%progbits
	.align	1
	.syntax unified
	.thumb
	.thumb_func
	.type	__NVIC_EnableIRQ, %function
__NVIC_EnableIRQ:
.LFB121:
	.file 2 "/home/sjo/.segger/SEGGER Embedded Studio/v8/packages/CMSIS_5/CMSIS/Core/Include/core_cm4.h"
	.loc 2 1685 1
	.cfi_startproc
	@ args = 0, pretend = 0, frame = 8
	@ frame_needed = 0, uses_anonymous_args = 0
	@ link register save eliminated.
	sub	sp, sp, #8
	.cfi_def_cfa_offset 8
	mov	r3, r0
	strb	r3, [sp, #7]
	.loc 2 1686 6
	ldrsb	r3, [sp, #7]
	cmp	r3, #0
	blt	.L3
	.loc 2 1688 5
	.loc 2 1689 81
	ldrb	r3, [sp, #7]	@ zero_extendqisi2
	and	r2, r3, #31
	.loc 2 1689 9
	ldr	r1, .L4
	.loc 2 1689 18
	ldrsb	r3, [sp, #7]
	.loc 2 1689 34
	lsrs	r3, r3, #5
	.loc 2 1689 45
	movs	r0, #1
	lsl	r2, r0, r2
	.loc 2 1689 43
	str	r2, [r1, r3, lsl #2]
	.loc 2 1690 5
.L3:
	.loc 2 1692 1
	nop
	add	sp, sp, #8
	.cfi_def_cfa_offset 0
	@ sp needed
	bx	lr
.L5:
	.align	2
.L4:
	.word	-536813312
	.cfi_endproc
.LFE121:
	.size	__NVIC_EnableIRQ, .-__NVIC_EnableIRQ
	.section	.text.__NVIC_DisableIRQ,"ax",%progbits
	.align	1
	.syntax unified
	.thumb
	.thumb_func
	.type	__NVIC_DisableIRQ, %function
__NVIC_DisableIRQ:
.LFB123:
	.loc 2 1723 1
	.cfi_startproc
	@ args = 0, pretend = 0, frame = 8
	@ frame_needed = 0, uses_anonymous_args = 0
	@ link register save eliminated.
	sub	sp, sp, #8
	.cfi_def_cfa_offset 8
	mov	r3, r0
	strb	r3, [sp, #7]
	.loc 2 1724 6
	ldrsb	r3, [sp, #7]
	cmp	r3, #0
	blt	.L8
	.loc 2 1726 81
	ldrb	r3, [sp, #7]	@ zero_extendqisi2
	and	r2, r3, #31
	.loc 2 1726 9
	ldr	r1, .L9
	.loc 2 1726 18
	ldrsb	r3, [sp, #7]
	.loc 2 1726 34
	lsrs	r3, r3, #5
	.loc 2 1726 45
	movs	r0, #1
	lsl	r2, r0, r2
	.loc 2 1726 43
	adds	r3, r3, #32
	str	r2, [r1, r3, lsl #2]
.LBB6:
.LBB7:
	.file 3 "/home/sjo/.segger/SEGGER Embedded Studio/v8/packages/CMSIS_5/CMSIS/Core/Include/cmsis_gcc.h"
	.loc 3 271 3
	.syntax unified
@ 271 "/home/sjo/.segger/SEGGER Embedded Studio/v8/packages/CMSIS_5/CMSIS/Core/Include/cmsis_gcc.h" 1
	dsb 0xF
@ 0 "" 2
	.loc 3 272 1
	.thumb
	.syntax unified
	nop
.LBE7:
.LBE6:
.LBB8:
.LBB9:
	.loc 3 260 3
	.syntax unified
@ 260 "/home/sjo/.segger/SEGGER Embedded Studio/v8/packages/CMSIS_5/CMSIS/Core/Include/cmsis_gcc.h" 1
	isb 0xF
@ 0 "" 2
	.loc 3 261 1
	.thumb
	.syntax unified
	nop
.L8:
.LBE9:
.LBE8:
	.loc 2 1730 1
	nop
	add	sp, sp, #8
	.cfi_def_cfa_offset 0
	@ sp needed
	bx	lr
.L10:
	.align	2
.L9:
	.word	-536813312
	.cfi_endproc
.LFE123:
	.size	__NVIC_DisableIRQ, .-__NVIC_DisableIRQ
	.section	.text.__NVIC_SetPendingIRQ,"ax",%progbits
	.align	1
	.syntax unified
	.thumb
	.thumb_func
	.type	__NVIC_SetPendingIRQ, %function
__NVIC_SetPendingIRQ:
.LFB125:
	.loc 2 1761 1
	.cfi_startproc
	@ args = 0, pretend = 0, frame = 8
	@ frame_needed = 0, uses_anonymous_args = 0
	@ link register save eliminated.
	sub	sp, sp, #8
	.cfi_def_cfa_offset 8
	mov	r3, r0
	strb	r3, [sp, #7]
	.loc 2 1762 6
	ldrsb	r3, [sp, #7]
	cmp	r3, #0
	blt	.L13
	.loc 2 1764 81
	ldrb	r3, [sp, #7]	@ zero_extendqisi2
	and	r2, r3, #31
	.loc 2 1764 9
	ldr	r1, .L14
	.loc 2 1764 18
	ldrsb	r3, [sp, #7]
	.loc 2 1764 34
	lsrs	r3, r3, #5
	.loc 2 1764 45
	movs	r0, #1
	lsl	r2, r0, r2
	.loc 2 1764 43
	adds	r3, r3, #64
	str	r2, [r1, r3, lsl #2]
.L13:
	.loc 2 1766 1
	nop
	add	sp, sp, #8
	.cfi_def_cfa_offset 0
	@ sp needed
	bx	lr
.L15:
	.align	2
.L14:
	.word	-536813312
	.cfi_endproc
.LFE125:
	.size	__NVIC_SetPendingIRQ, .-__NVIC_SetPendingIRQ
	.section	.text.__NVIC_ClearPendingIRQ,"ax",%progbits
	.align	1
	.syntax unified
	.thumb
	.thumb_func
	.type	__NVIC_ClearPendingIRQ, %function
__NVIC_ClearPendingIRQ:
.LFB126:
	.loc 2 1776 1
	.cfi_startproc
	@ args = 0, pretend = 0, frame = 8
	@ frame_needed = 0, uses_anonymous_args = 0
	@ link register save eliminated.
	sub	sp, sp, #8
	.cfi_def_cfa_offset 8
	mov	r3, r0
	strb	r3, [sp, #7]
	.loc 2 1777 6
	ldrsb	r3, [sp, #7]
	cmp	r3, #0
	blt	.L18
	.loc 2 1779 81
	ldrb	r3, [sp, #7]	@ zero_extendqisi2
	and	r2, r3, #31
	.loc 2 1779 9
	ldr	r1, .L19
	.loc 2 1779 18
	ldrsb	r3, [sp, #7]
	.loc 2 1779 34
	lsrs	r3, r3, #5
	.loc 2 1779 45
	movs	r0, #1
	lsl	r2, r0, r2
	.loc 2 1779 43
	adds	r3, r3, #96
	str	r2, [r1, r3, lsl #2]
.L18:
	.loc 2 1781 1
	nop
	add	sp, sp, #8
	.cfi_def_cfa_offset 0
	@ sp needed
	bx	lr
.L20:
	.align	2
.L19:
	.word	-536813312
	.cfi_endproc
.LFE126:
	.size	__NVIC_ClearPendingIRQ, .-__NVIC_ClearPendingIRQ
	.section	.text.__NVIC_SetPriority,"ax",%progbits
	.align	1
	.syntax unified
	.thumb
	.thumb_func
	.type	__NVIC_SetPriority, %function
__NVIC_SetPriority:
.LFB128:
	.loc 2 1815 1
	.cfi_startproc
	@ args = 0, pretend = 0, frame = 8
	@ frame_needed = 0, uses_anonymous_args = 0
	@ link register save eliminated.
	sub	sp, sp, #8
	.cfi_def_cfa_offset 8
	mov	r3, r0
	str	r1, [sp]
	strb	r3, [sp, #7]
	.loc 2 1816 6
	ldrsb	r3, [sp, #7]
	cmp	r3, #0
	blt	.L22
	.loc 2 1818 48
	ldr	r3, [sp]
	uxtb	r2, r3
	.loc 2 1818 9
	ldr	r1, .L25
	.loc 2 1818 15
	ldrsb	r3, [sp, #7]
	.loc 2 1818 48
	lsls	r2, r2, #5
	uxtb	r2, r2
	.loc 2 1818 46
	add	r3, r3, r1
	strb	r2, [r3, #768]
	.loc 2 1824 1
	b	.L24
.L22:
	.loc 2 1822 48
	ldr	r3, [sp]
	uxtb	r2, r3
	.loc 2 1822 8
	ldr	r1, .L25+4
	.loc 2 1822 32
	ldrb	r3, [sp, #7]	@ zero_extendqisi2
	and	r3, r3, #15
	.loc 2 1822 40
	subs	r3, r3, #4
	.loc 2 1822 48
	lsls	r2, r2, #5
	uxtb	r2, r2
	.loc 2 1822 46
	add	r3, r3, r1
	strb	r2, [r3, #24]
.L24:
	.loc 2 1824 1
	nop
	add	sp, sp, #8
	.cfi_def_cfa_offset 0
	@ sp needed
	bx	lr
.L26:
	.align	2
.L25:
	.word	-536813312
	.word	-536810240
	.cfi_endproc
.LFE128:
	.size	__NVIC_SetPriority, .-__NVIC_SetPriority
	.section	.text.sd_mutex_new,"ax",%progbits
	.align	1
	.syntax unified
	.thumb
	.thumb_func
	.type	sd_mutex_new, %function
sd_mutex_new:
.LFB163:
	.file 4 "../../../nRF5_SDK_14.2.0/components/softdevice/s132/headers/nrf_soc.h"
	.loc 4 392 1
	.cfi_startproc
	@ Naked Function: prologue and epilogue provided by programmer.
	@ args = 0, pretend = 0, frame = 0
	@ frame_needed = 0, uses_anonymous_args = 0
	.loc 4 392 1
	.syntax unified
@ 392 "../../../nRF5_SDK_14.2.0/components/softdevice/s132/headers/nrf_soc.h" 1
	svc #43
bx r14
@ 0 "" 2
	.thumb
	.syntax unified
	nop
	mov	r0, r3
	.cfi_endproc
.LFE163:
	.size	sd_mutex_new, .-sd_mutex_new
	.section	.text.sd_mutex_acquire,"ax",%progbits
	.align	1
	.syntax unified
	.thumb
	.thumb_func
	.type	sd_mutex_acquire, %function
sd_mutex_acquire:
.LFB164:
	.loc 4 401 1
	.cfi_startproc
	@ Naked Function: prologue and epilogue provided by programmer.
	@ args = 0, pretend = 0, frame = 0
	@ frame_needed = 0, uses_anonymous_args = 0
	.loc 4 401 1
	.syntax unified
@ 401 "../../../nRF5_SDK_14.2.0/components/softdevice/s132/headers/nrf_soc.h" 1
	svc #44
bx r14
@ 0 "" 2
	.thumb
	.syntax unified
	nop
	mov	r0, r3
	.cfi_endproc
.LFE164:
	.size	sd_mutex_acquire, .-sd_mutex_acquire
	.section	.text.sd_mutex_release,"ax",%progbits
	.align	1
	.syntax unified
	.thumb
	.thumb_func
	.type	sd_mutex_release, %function
sd_mutex_release:
.LFB165:
	.loc 4 409 1
	.cfi_startproc
	@ Naked Function: prologue and epilogue provided by programmer.
	@ args = 0, pretend = 0, frame = 0
	@ frame_needed = 0, uses_anonymous_args = 0
	.loc 4 409 1
	.syntax unified
@ 409 "../../../nRF5_SDK_14.2.0/components/softdevice/s132/headers/nrf_soc.h" 1
	svc #45
bx r14
@ 0 "" 2
	.thumb
	.syntax unified
	nop
	mov	r0, r3
	.cfi_endproc
.LFE165:
	.size	sd_mutex_release, .-sd_mutex_release
	.section	.text.sd_rand_application_pool_capacity_get,"ax",%progbits
	.align	1
	.syntax unified
	.thumb
	.thumb_func
	.type	sd_rand_application_pool_capacity_get, %function
sd_rand_application_pool_capacity_get:
.LFB166:
	.loc 4 417 1
	.cfi_startproc
	@ Naked Function: prologue and epilogue provided by programmer.
	@ args = 0, pretend = 0, frame = 0
	@ frame_needed = 0, uses_anonymous_args = 0
	.loc 4 417 1
	.syntax unified
@ 417 "../../../nRF5_SDK_14.2.0/components/softdevice/s132/headers/nrf_soc.h" 1
	svc #46
bx r14
@ 0 "" 2
	.thumb
	.syntax unified
	nop
	mov	r0, r3
	.cfi_endproc
.LFE166:
	.size	sd_rand_application_pool_capacity_get, .-sd_rand_application_pool_capacity_get
	.section	.text.sd_rand_application_bytes_available_get,"ax",%progbits
	.align	1
	.syntax unified
	.thumb
	.thumb_func
	.type	sd_rand_application_bytes_available_get, %function
sd_rand_application_bytes_available_get:
.LFB167:
	.loc 4 425 1
	.cfi_startproc
	@ Naked Function: prologue and epilogue provided by programmer.
	@ args = 0, pretend = 0, frame = 0
	@ frame_needed = 0, uses_anonymous_args = 0
	.loc 4 425 1
	.syntax unified
@ 425 "../../../nRF5_SDK_14.2.0/components/softdevice/s132/headers/nrf_soc.h" 1
	svc #47
bx r14
@ 0 "" 2
	.thumb
	.syntax unified
	nop
	mov	r0, r3
	.cfi_endproc
.LFE167:
	.size	sd_rand_application_bytes_available_get, .-sd_rand_application_bytes_available_get
	.section	.text.sd_rand_application_vector_get,"ax",%progbits
	.align	1
	.syntax unified
	.thumb
	.thumb_func
	.type	sd_rand_application_vector_get, %function
sd_rand_application_vector_get:
.LFB168:
	.loc 4 435 1
	.cfi_startproc
	@ Naked Function: prologue and epilogue provided by programmer.
	@ args = 0, pretend = 0, frame = 0
	@ frame_needed = 0, uses_anonymous_args = 0
	.loc 4 435 1
	.syntax unified
@ 435 "../../../nRF5_SDK_14.2.0/components/softdevice/s132/headers/nrf_soc.h" 1
	svc #48
bx r14
@ 0 "" 2
	.thumb
	.syntax unified
	nop
	mov	r0, r3
	.cfi_endproc
.LFE168:
	.size	sd_rand_application_vector_get, .-sd_rand_application_vector_get
	.section	.text.sd_power_reset_reason_get,"ax",%progbits
	.align	1
	.syntax unified
	.thumb
	.thumb_func
	.type	sd_power_reset_reason_get, %function
sd_power_reset_reason_get:
.LFB169:
	.loc 4 443 1
	.cfi_startproc
	@ Naked Function: prologue and epilogue provided by programmer.
	@ args = 0, pretend = 0, frame = 0
	@ frame_needed = 0, uses_anonymous_args = 0
	.loc 4 443 1
	.syntax unified
@ 443 "../../../nRF5_SDK_14.2.0/components/softdevice/s132/headers/nrf_soc.h" 1
	svc #51
bx r14
@ 0 "" 2
	.thumb
	.syntax unified
	nop
	mov	r0, r3
	.cfi_endproc
.LFE169:
	.size	sd_power_reset_reason_get, .-sd_power_reset_reason_get
	.section	.text.sd_power_reset_reason_clr,"ax",%progbits
	.align	1
	.syntax unified
	.thumb
	.thumb_func
	.type	sd_power_reset_reason_clr, %function
sd_power_reset_reason_clr:
.LFB170:
	.loc 4 451 1
	.cfi_startproc
	@ Naked Function: prologue and epilogue provided by programmer.
	@ args = 0, pretend = 0, frame = 0
	@ frame_needed = 0, uses_anonymous_args = 0
	.loc 4 451 1
	.syntax unified
@ 451 "../../../nRF5_SDK_14.2.0/components/softdevice/s132/headers/nrf_soc.h" 1
	svc #52
bx r14
@ 0 "" 2
	.thumb
	.syntax unified
	nop
	mov	r0, r3
	.cfi_endproc
.LFE170:
	.size	sd_power_reset_reason_clr, .-sd_power_reset_reason_clr
	.section	.text.sd_power_mode_set,"ax",%progbits
	.align	1
	.syntax unified
	.thumb
	.thumb_func
	.type	sd_power_mode_set, %function
sd_power_mode_set:
.LFB171:
	.loc 4 460 1
	.cfi_startproc
	@ Naked Function: prologue and epilogue provided by programmer.
	@ args = 0, pretend = 0, frame = 0
	@ frame_needed = 0, uses_anonymous_args = 0
	.loc 4 460 1
	.syntax unified
@ 460 "../../../nRF5_SDK_14.2.0/components/softdevice/s132/headers/nrf_soc.h" 1
	svc #49
bx r14
@ 0 "" 2
	.thumb
	.syntax unified
	nop
	mov	r0, r3
	.cfi_endproc
.LFE171:
	.size	sd_power_mode_set, .-sd_power_mode_set
	.section	.text.sd_power_system_off,"ax",%progbits
	.align	1
	.syntax unified
	.thumb
	.thumb_func
	.type	sd_power_system_off, %function
sd_power_system_off:
.LFB172:
	.loc 4 466 1
	.cfi_startproc
	@ Naked Function: prologue and epilogue provided by programmer.
	@ args = 0, pretend = 0, frame = 0
	@ frame_needed = 0, uses_anonymous_args = 0
	.loc 4 466 1
	.syntax unified
@ 466 "../../../nRF5_SDK_14.2.0/components/softdevice/s132/headers/nrf_soc.h" 1
	svc #50
bx r14
@ 0 "" 2
	.thumb
	.syntax unified
	nop
	mov	r0, r3
	.cfi_endproc
.LFE172:
	.size	sd_power_system_off, .-sd_power_system_off
	.section	.text.sd_power_pof_enable,"ax",%progbits
	.align	1
	.syntax unified
	.thumb
	.thumb_func
	.type	sd_power_pof_enable, %function
sd_power_pof_enable:
.LFB173:
	.loc 4 477 1
	.cfi_startproc
	@ Naked Function: prologue and epilogue provided by programmer.
	@ args = 0, pretend = 0, frame = 0
	@ frame_needed = 0, uses_anonymous_args = 0
	.loc 4 477 1
	.syntax unified
@ 477 "../../../nRF5_SDK_14.2.0/components/softdevice/s132/headers/nrf_soc.h" 1
	svc #53
bx r14
@ 0 "" 2
	.thumb
	.syntax unified
	nop
	mov	r0, r3
	.cfi_endproc
.LFE173:
	.size	sd_power_pof_enable, .-sd_power_pof_enable
	.section	.text.sd_power_pof_threshold_set,"ax",%progbits
	.align	1
	.syntax unified
	.thumb
	.thumb_func
	.type	sd_power_pof_threshold_set, %function
sd_power_pof_threshold_set:
.LFB174:
	.loc 4 486 1
	.cfi_startproc
	@ Naked Function: prologue and epilogue provided by programmer.
	@ args = 0, pretend = 0, frame = 0
	@ frame_needed = 0, uses_anonymous_args = 0
	.loc 4 486 1
	.syntax unified
@ 486 "../../../nRF5_SDK_14.2.0/components/softdevice/s132/headers/nrf_soc.h" 1
	svc #54
bx r14
@ 0 "" 2
	.thumb
	.syntax unified
	nop
	mov	r0, r3
	.cfi_endproc
.LFE174:
	.size	sd_power_pof_threshold_set, .-sd_power_pof_threshold_set
	.section	.text.sd_power_ram_power_set,"ax",%progbits
	.align	1
	.syntax unified
	.thumb
	.thumb_func
	.type	sd_power_ram_power_set, %function
sd_power_ram_power_set:
.LFB175:
	.loc 4 495 1
	.cfi_startproc
	@ Naked Function: prologue and epilogue provided by programmer.
	@ args = 0, pretend = 0, frame = 0
	@ frame_needed = 0, uses_anonymous_args = 0
	.loc 4 495 1
	.syntax unified
@ 495 "../../../nRF5_SDK_14.2.0/components/softdevice/s132/headers/nrf_soc.h" 1
	svc #55
bx r14
@ 0 "" 2
	.thumb
	.syntax unified
	nop
	mov	r0, r3
	.cfi_endproc
.LFE175:
	.size	sd_power_ram_power_set, .-sd_power_ram_power_set
	.section	.text.sd_power_ram_power_clr,"ax",%progbits
	.align	1
	.syntax unified
	.thumb
	.thumb_func
	.type	sd_power_ram_power_clr, %function
sd_power_ram_power_clr:
.LFB176:
	.loc 4 504 1
	.cfi_startproc
	@ Naked Function: prologue and epilogue provided by programmer.
	@ args = 0, pretend = 0, frame = 0
	@ frame_needed = 0, uses_anonymous_args = 0
	.loc 4 504 1
	.syntax unified
@ 504 "../../../nRF5_SDK_14.2.0/components/softdevice/s132/headers/nrf_soc.h" 1
	svc #56
bx r14
@ 0 "" 2
	.thumb
	.syntax unified
	nop
	mov	r0, r3
	.cfi_endproc
.LFE176:
	.size	sd_power_ram_power_clr, .-sd_power_ram_power_clr
	.section	.text.sd_power_ram_power_get,"ax",%progbits
	.align	1
	.syntax unified
	.thumb
	.thumb_func
	.type	sd_power_ram_power_get, %function
sd_power_ram_power_get:
.LFB177:
	.loc 4 513 1
	.cfi_startproc
	@ Naked Function: prologue and epilogue provided by programmer.
	@ args = 0, pretend = 0, frame = 0
	@ frame_needed = 0, uses_anonymous_args = 0
	.loc 4 513 1
	.syntax unified
@ 513 "../../../nRF5_SDK_14.2.0/components/softdevice/s132/headers/nrf_soc.h" 1
	svc #57
bx r14
@ 0 "" 2
	.thumb
	.syntax unified
	nop
	mov	r0, r3
	.cfi_endproc
.LFE177:
	.size	sd_power_ram_power_get, .-sd_power_ram_power_get
	.section	.text.sd_power_gpregret_set,"ax",%progbits
	.align	1
	.syntax unified
	.thumb
	.thumb_func
	.type	sd_power_gpregret_set, %function
sd_power_gpregret_set:
.LFB178:
	.loc 4 522 1
	.cfi_startproc
	@ Naked Function: prologue and epilogue provided by programmer.
	@ args = 0, pretend = 0, frame = 0
	@ frame_needed = 0, uses_anonymous_args = 0
	.loc 4 522 1
	.syntax unified
@ 522 "../../../nRF5_SDK_14.2.0/components/softdevice/s132/headers/nrf_soc.h" 1
	svc #58
bx r14
@ 0 "" 2
	.thumb
	.syntax unified
	nop
	mov	r0, r3
	.cfi_endproc
.LFE178:
	.size	sd_power_gpregret_set, .-sd_power_gpregret_set
	.section	.text.sd_power_gpregret_clr,"ax",%progbits
	.align	1
	.syntax unified
	.thumb
	.thumb_func
	.type	sd_power_gpregret_clr, %function
sd_power_gpregret_clr:
.LFB179:
	.loc 4 531 1
	.cfi_startproc
	@ Naked Function: prologue and epilogue provided by programmer.
	@ args = 0, pretend = 0, frame = 0
	@ frame_needed = 0, uses_anonymous_args = 0
	.loc 4 531 1
	.syntax unified
@ 531 "../../../nRF5_SDK_14.2.0/components/softdevice/s132/headers/nrf_soc.h" 1
	svc #59
bx r14
@ 0 "" 2
	.thumb
	.syntax unified
	nop
	mov	r0, r3
	.cfi_endproc
.LFE179:
	.size	sd_power_gpregret_clr, .-sd_power_gpregret_clr
	.section	.text.sd_power_gpregret_get,"ax",%progbits
	.align	1
	.syntax unified
	.thumb
	.thumb_func
	.type	sd_power_gpregret_get, %function
sd_power_gpregret_get:
.LFB180:
	.loc 4 540 1
	.cfi_startproc
	@ Naked Function: prologue and epilogue provided by programmer.
	@ args = 0, pretend = 0, frame = 0
	@ frame_needed = 0, uses_anonymous_args = 0
	.loc 4 540 1
	.syntax unified
@ 540 "../../../nRF5_SDK_14.2.0/components/softdevice/s132/headers/nrf_soc.h" 1
	svc #60
bx r14
@ 0 "" 2
	.thumb
	.syntax unified
	nop
	mov	r0, r3
	.cfi_endproc
.LFE180:
	.size	sd_power_gpregret_get, .-sd_power_gpregret_get
	.section	.text.sd_power_dcdc_mode_set,"ax",%progbits
	.align	1
	.syntax unified
	.thumb
	.thumb_func
	.type	sd_power_dcdc_mode_set, %function
sd_power_dcdc_mode_set:
.LFB181:
	.loc 4 551 1
	.cfi_startproc
	@ Naked Function: prologue and epilogue provided by programmer.
	@ args = 0, pretend = 0, frame = 0
	@ frame_needed = 0, uses_anonymous_args = 0
	.loc 4 551 1
	.syntax unified
@ 551 "../../../nRF5_SDK_14.2.0/components/softdevice/s132/headers/nrf_soc.h" 1
	svc #61
bx r14
@ 0 "" 2
	.thumb
	.syntax unified
	nop
	mov	r0, r3
	.cfi_endproc
.LFE181:
	.size	sd_power_dcdc_mode_set, .-sd_power_dcdc_mode_set
	.section	.text.sd_clock_hfclk_request,"ax",%progbits
	.align	1
	.syntax unified
	.thumb
	.thumb_func
	.type	sd_clock_hfclk_request, %function
sd_clock_hfclk_request:
.LFB182:
	.loc 4 563 1
	.cfi_startproc
	@ Naked Function: prologue and epilogue provided by programmer.
	@ args = 0, pretend = 0, frame = 0
	@ frame_needed = 0, uses_anonymous_args = 0
	.loc 4 563 1
	.syntax unified
@ 563 "../../../nRF5_SDK_14.2.0/components/softdevice/s132/headers/nrf_soc.h" 1
	svc #63
bx r14
@ 0 "" 2
	.thumb
	.syntax unified
	nop
	mov	r0, r3
	.cfi_endproc
.LFE182:
	.size	sd_clock_hfclk_request, .-sd_clock_hfclk_request
	.section	.text.sd_clock_hfclk_release,"ax",%progbits
	.align	1
	.syntax unified
	.thumb
	.thumb_func
	.type	sd_clock_hfclk_release, %function
sd_clock_hfclk_release:
.LFB183:
	.loc 4 574 1
	.cfi_startproc
	@ Naked Function: prologue and epilogue provided by programmer.
	@ args = 0, pretend = 0, frame = 0
	@ frame_needed = 0, uses_anonymous_args = 0
	.loc 4 574 1
	.syntax unified
@ 574 "../../../nRF5_SDK_14.2.0/components/softdevice/s132/headers/nrf_soc.h" 1
	svc #64
bx r14
@ 0 "" 2
	.thumb
	.syntax unified
	nop
	mov	r0, r3
	.cfi_endproc
.LFE183:
	.size	sd_clock_hfclk_release, .-sd_clock_hfclk_release
	.section	.text.sd_clock_hfclk_is_running,"ax",%progbits
	.align	1
	.syntax unified
	.thumb
	.thumb_func
	.type	sd_clock_hfclk_is_running, %function
sd_clock_hfclk_is_running:
.LFB184:
	.loc 4 585 1
	.cfi_startproc
	@ Naked Function: prologue and epilogue provided by programmer.
	@ args = 0, pretend = 0, frame = 0
	@ frame_needed = 0, uses_anonymous_args = 0
	.loc 4 585 1
	.syntax unified
@ 585 "../../../nRF5_SDK_14.2.0/components/softdevice/s132/headers/nrf_soc.h" 1
	svc #65
bx r14
@ 0 "" 2
	.thumb
	.syntax unified
	nop
	mov	r0, r3
	.cfi_endproc
.LFE184:
	.size	sd_clock_hfclk_is_running, .-sd_clock_hfclk_is_running
	.section	.text.sd_app_evt_wait,"ax",%progbits
	.align	1
	.syntax unified
	.thumb
	.thumb_func
	.type	sd_app_evt_wait, %function
sd_app_evt_wait:
.LFB185:
	.loc 4 613 1
	.cfi_startproc
	@ Naked Function: prologue and epilogue provided by programmer.
	@ args = 0, pretend = 0, frame = 0
	@ frame_needed = 0, uses_anonymous_args = 0
	.loc 4 613 1
	.syntax unified
@ 613 "../../../nRF5_SDK_14.2.0/components/softdevice/s132/headers/nrf_soc.h" 1
	svc #62
bx r14
@ 0 "" 2
	.thumb
	.syntax unified
	nop
	mov	r0, r3
	.cfi_endproc
.LFE185:
	.size	sd_app_evt_wait, .-sd_app_evt_wait
	.section	.text.sd_ppi_channel_enable_get,"ax",%progbits
	.align	1
	.syntax unified
	.thumb
	.thumb_func
	.type	sd_ppi_channel_enable_get, %function
sd_ppi_channel_enable_get:
.LFB186:
	.loc 4 621 1
	.cfi_startproc
	@ Naked Function: prologue and epilogue provided by programmer.
	@ args = 0, pretend = 0, frame = 0
	@ frame_needed = 0, uses_anonymous_args = 0
	.loc 4 621 1
	.syntax unified
@ 621 "../../../nRF5_SDK_14.2.0/components/softdevice/s132/headers/nrf_soc.h" 1
	svc #32
bx r14
@ 0 "" 2
	.thumb
	.syntax unified
	nop
	mov	r0, r3
	.cfi_endproc
.LFE186:
	.size	sd_ppi_channel_enable_get, .-sd_ppi_channel_enable_get
	.section	.text.sd_ppi_channel_enable_set,"ax",%progbits
	.align	1
	.syntax unified
	.thumb
	.thumb_func
	.type	sd_ppi_channel_enable_set, %function
sd_ppi_channel_enable_set:
.LFB187:
	.loc 4 629 1
	.cfi_startproc
	@ Naked Function: prologue and epilogue provided by programmer.
	@ args = 0, pretend = 0, frame = 0
	@ frame_needed = 0, uses_anonymous_args = 0
	.loc 4 629 1
	.syntax unified
@ 629 "../../../nRF5_SDK_14.2.0/components/softdevice/s132/headers/nrf_soc.h" 1
	svc #33
bx r14
@ 0 "" 2
	.thumb
	.syntax unified
	nop
	mov	r0, r3
	.cfi_endproc
.LFE187:
	.size	sd_ppi_channel_enable_set, .-sd_ppi_channel_enable_set
	.section	.text.sd_ppi_channel_enable_clr,"ax",%progbits
	.align	1
	.syntax unified
	.thumb
	.thumb_func
	.type	sd_ppi_channel_enable_clr, %function
sd_ppi_channel_enable_clr:
.LFB188:
	.loc 4 637 1
	.cfi_startproc
	@ Naked Function: prologue and epilogue provided by programmer.
	@ args = 0, pretend = 0, frame = 0
	@ frame_needed = 0, uses_anonymous_args = 0
	.loc 4 637 1
	.syntax unified
@ 637 "../../../nRF5_SDK_14.2.0/components/softdevice/s132/headers/nrf_soc.h" 1
	svc #34
bx r14
@ 0 "" 2
	.thumb
	.syntax unified
	nop
	mov	r0, r3
	.cfi_endproc
.LFE188:
	.size	sd_ppi_channel_enable_clr, .-sd_ppi_channel_enable_clr
	.section	.text.sd_ppi_channel_assign,"ax",%progbits
	.align	1
	.syntax unified
	.thumb
	.thumb_func
	.type	sd_ppi_channel_assign, %function
sd_ppi_channel_assign:
.LFB189:
	.loc 4 648 1
	.cfi_startproc
	@ Naked Function: prologue and epilogue provided by programmer.
	@ args = 0, pretend = 0, frame = 0
	@ frame_needed = 0, uses_anonymous_args = 0
	.loc 4 648 1
	.syntax unified
@ 648 "../../../nRF5_SDK_14.2.0/components/softdevice/s132/headers/nrf_soc.h" 1
	svc #35
bx r14
@ 0 "" 2
	.thumb
	.syntax unified
	nop
	mov	r0, r3
	.cfi_endproc
.LFE189:
	.size	sd_ppi_channel_assign, .-sd_ppi_channel_assign
	.section	.text.sd_ppi_group_task_enable,"ax",%progbits
	.align	1
	.syntax unified
	.thumb
	.thumb_func
	.type	sd_ppi_group_task_enable, %function
sd_ppi_group_task_enable:
.LFB190:
	.loc 4 657 1
	.cfi_startproc
	@ Naked Function: prologue and epilogue provided by programmer.
	@ args = 0, pretend = 0, frame = 0
	@ frame_needed = 0, uses_anonymous_args = 0
	.loc 4 657 1
	.syntax unified
@ 657 "../../../nRF5_SDK_14.2.0/components/softdevice/s132/headers/nrf_soc.h" 1
	svc #36
bx r14
@ 0 "" 2
	.thumb
	.syntax unified
	nop
	mov	r0, r3
	.cfi_endproc
.LFE190:
	.size	sd_ppi_group_task_enable, .-sd_ppi_group_task_enable
	.section	.text.sd_ppi_group_task_disable,"ax",%progbits
	.align	1
	.syntax unified
	.thumb
	.thumb_func
	.type	sd_ppi_group_task_disable, %function
sd_ppi_group_task_disable:
.LFB191:
	.loc 4 666 1
	.cfi_startproc
	@ Naked Function: prologue and epilogue provided by programmer.
	@ args = 0, pretend = 0, frame = 0
	@ frame_needed = 0, uses_anonymous_args = 0
	.loc 4 666 1
	.syntax unified
@ 666 "../../../nRF5_SDK_14.2.0/components/softdevice/s132/headers/nrf_soc.h" 1
	svc #37
bx r14
@ 0 "" 2
	.thumb
	.syntax unified
	nop
	mov	r0, r3
	.cfi_endproc
.LFE191:
	.size	sd_ppi_group_task_disable, .-sd_ppi_group_task_disable
	.section	.text.sd_ppi_group_assign,"ax",%progbits
	.align	1
	.syntax unified
	.thumb
	.thumb_func
	.type	sd_ppi_group_assign, %function
sd_ppi_group_assign:
.LFB192:
	.loc 4 676 1
	.cfi_startproc
	@ Naked Function: prologue and epilogue provided by programmer.
	@ args = 0, pretend = 0, frame = 0
	@ frame_needed = 0, uses_anonymous_args = 0
	.loc 4 676 1
	.syntax unified
@ 676 "../../../nRF5_SDK_14.2.0/components/softdevice/s132/headers/nrf_soc.h" 1
	svc #38
bx r14
@ 0 "" 2
	.thumb
	.syntax unified
	nop
	mov	r0, r3
	.cfi_endproc
.LFE192:
	.size	sd_ppi_group_assign, .-sd_ppi_group_assign
	.section	.text.sd_ppi_group_get,"ax",%progbits
	.align	1
	.syntax unified
	.thumb
	.thumb_func
	.type	sd_ppi_group_get, %function
sd_ppi_group_get:
.LFB193:
	.loc 4 686 1
	.cfi_startproc
	@ Naked Function: prologue and epilogue provided by programmer.
	@ args = 0, pretend = 0, frame = 0
	@ frame_needed = 0, uses_anonymous_args = 0
	.loc 4 686 1
	.syntax unified
@ 686 "../../../nRF5_SDK_14.2.0/components/softdevice/s132/headers/nrf_soc.h" 1
	svc #39
bx r14
@ 0 "" 2
	.thumb
	.syntax unified
	nop
	mov	r0, r3
	.cfi_endproc
.LFE193:
	.size	sd_ppi_group_get, .-sd_ppi_group_get
	.section	.text.sd_radio_notification_cfg_set,"ax",%progbits
	.align	1
	.syntax unified
	.thumb
	.thumb_func
	.type	sd_radio_notification_cfg_set, %function
sd_radio_notification_cfg_set:
.LFB194:
	.loc 4 717 1
	.cfi_startproc
	@ Naked Function: prologue and epilogue provided by programmer.
	@ args = 0, pretend = 0, frame = 0
	@ frame_needed = 0, uses_anonymous_args = 0
	.loc 4 717 1
	.syntax unified
@ 717 "../../../nRF5_SDK_14.2.0/components/softdevice/s132/headers/nrf_soc.h" 1
	svc #66
bx r14
@ 0 "" 2
	.thumb
	.syntax unified
	nop
	mov	r0, r3
	.cfi_endproc
.LFE194:
	.size	sd_radio_notification_cfg_set, .-sd_radio_notification_cfg_set
	.section	.text.sd_ecb_block_encrypt,"ax",%progbits
	.align	1
	.syntax unified
	.thumb
	.thumb_func
	.type	sd_ecb_block_encrypt, %function
sd_ecb_block_encrypt:
.LFB195:
	.loc 4 733 1
	.cfi_startproc
	@ Naked Function: prologue and epilogue provided by programmer.
	@ args = 0, pretend = 0, frame = 0
	@ frame_needed = 0, uses_anonymous_args = 0
	.loc 4 733 1
	.syntax unified
@ 733 "../../../nRF5_SDK_14.2.0/components/softdevice/s132/headers/nrf_soc.h" 1
	svc #67
bx r14
@ 0 "" 2
	.thumb
	.syntax unified
	nop
	mov	r0, r3
	.cfi_endproc
.LFE195:
	.size	sd_ecb_block_encrypt, .-sd_ecb_block_encrypt
	.section	.text.sd_ecb_blocks_encrypt,"ax",%progbits
	.align	1
	.syntax unified
	.thumb
	.thumb_func
	.type	sd_ecb_blocks_encrypt, %function
sd_ecb_blocks_encrypt:
.LFB196:
	.loc 4 750 1
	.cfi_startproc
	@ Naked Function: prologue and epilogue provided by programmer.
	@ args = 0, pretend = 0, frame = 0
	@ frame_needed = 0, uses_anonymous_args = 0
	.loc 4 750 1
	.syntax unified
@ 750 "../../../nRF5_SDK_14.2.0/components/softdevice/s132/headers/nrf_soc.h" 1
	svc #68
bx r14
@ 0 "" 2
	.thumb
	.syntax unified
	nop
	mov	r0, r3
	.cfi_endproc
.LFE196:
	.size	sd_ecb_blocks_encrypt, .-sd_ecb_blocks_encrypt
	.section	.text.sd_evt_get,"ax",%progbits
	.align	1
	.syntax unified
	.thumb
	.thumb_func
	.type	sd_evt_get, %function
sd_evt_get:
.LFB197:
	.loc 4 761 1
	.cfi_startproc
	@ Naked Function: prologue and epilogue provided by programmer.
	@ args = 0, pretend = 0, frame = 0
	@ frame_needed = 0, uses_anonymous_args = 0
	.loc 4 761 1
	.syntax unified
@ 761 "../../../nRF5_SDK_14.2.0/components/softdevice/s132/headers/nrf_soc.h" 1
	svc #72
bx r14
@ 0 "" 2
	.thumb
	.syntax unified
	nop
	mov	r0, r3
	.cfi_endproc
.LFE197:
	.size	sd_evt_get, .-sd_evt_get
	.section	.text.sd_temp_get,"ax",%progbits
	.align	1
	.syntax unified
	.thumb
	.thumb_func
	.type	sd_temp_get, %function
sd_temp_get:
.LFB198:
	.loc 4 772 1
	.cfi_startproc
	@ Naked Function: prologue and epilogue provided by programmer.
	@ args = 0, pretend = 0, frame = 0
	@ frame_needed = 0, uses_anonymous_args = 0
	.loc 4 772 1
	.syntax unified
@ 772 "../../../nRF5_SDK_14.2.0/components/softdevice/s132/headers/nrf_soc.h" 1
	svc #73
bx r14
@ 0 "" 2
	.thumb
	.syntax unified
	nop
	mov	r0, r3
	.cfi_endproc
.LFE198:
	.size	sd_temp_get, .-sd_temp_get
	.section	.text.sd_flash_write,"ax",%progbits
	.align	1
	.syntax unified
	.thumb
	.thumb_func
	.type	sd_flash_write, %function
sd_flash_write:
.LFB199:
	.loc 4 807 1
	.cfi_startproc
	@ Naked Function: prologue and epilogue provided by programmer.
	@ args = 0, pretend = 0, frame = 0
	@ frame_needed = 0, uses_anonymous_args = 0
	.loc 4 807 1
	.syntax unified
@ 807 "../../../nRF5_SDK_14.2.0/components/softdevice/s132/headers/nrf_soc.h" 1
	svc #41
bx r14
@ 0 "" 2
	.thumb
	.syntax unified
	nop
	mov	r0, r3
	.cfi_endproc
.LFE199:
	.size	sd_flash_write, .-sd_flash_write
	.section	.text.sd_flash_page_erase,"ax",%progbits
	.align	1
	.syntax unified
	.thumb
	.thumb_func
	.type	sd_flash_page_erase, %function
sd_flash_page_erase:
.LFB200:
	.loc 4 837 1
	.cfi_startproc
	@ Naked Function: prologue and epilogue provided by programmer.
	@ args = 0, pretend = 0, frame = 0
	@ frame_needed = 0, uses_anonymous_args = 0
	.loc 4 837 1
	.syntax unified
@ 837 "../../../nRF5_SDK_14.2.0/components/softdevice/s132/headers/nrf_soc.h" 1
	svc #40
bx r14
@ 0 "" 2
	.thumb
	.syntax unified
	nop
	mov	r0, r3
	.cfi_endproc
.LFE200:
	.size	sd_flash_page_erase, .-sd_flash_page_erase
	.section	.text.sd_flash_protect,"ax",%progbits
	.align	1
	.syntax unified
	.thumb
	.thumb_func
	.type	sd_flash_protect, %function
sd_flash_protect:
.LFB201:
	.loc 4 855 1
	.cfi_startproc
	@ Naked Function: prologue and epilogue provided by programmer.
	@ args = 0, pretend = 0, frame = 0
	@ frame_needed = 0, uses_anonymous_args = 0
	.loc 4 855 1
	.syntax unified
@ 855 "../../../nRF5_SDK_14.2.0/components/softdevice/s132/headers/nrf_soc.h" 1
	svc #42
bx r14
@ 0 "" 2
	.thumb
	.syntax unified
	nop
	mov	r0, r3
	.cfi_endproc
.LFE201:
	.size	sd_flash_protect, .-sd_flash_protect
	.section	.text.sd_radio_session_open,"ax",%progbits
	.align	1
	.syntax unified
	.thumb
	.thumb_func
	.type	sd_radio_session_open, %function
sd_radio_session_open:
.LFB202:
	.loc 4 877 2
	.cfi_startproc
	@ Naked Function: prologue and epilogue provided by programmer.
	@ args = 0, pretend = 0, frame = 0
	@ frame_needed = 0, uses_anonymous_args = 0
	.loc 4 877 2
	.syntax unified
@ 877 "../../../nRF5_SDK_14.2.0/components/softdevice/s132/headers/nrf_soc.h" 1
	svc #69
bx r14
@ 0 "" 2
	.thumb
	.syntax unified
	nop
	mov	r0, r3
	.cfi_endproc
.LFE202:
	.size	sd_radio_session_open, .-sd_radio_session_open
	.section	.text.sd_radio_session_close,"ax",%progbits
	.align	1
	.syntax unified
	.thumb
	.thumb_func
	.type	sd_radio_session_close, %function
sd_radio_session_close:
.LFB203:
	.loc 4 890 2
	.cfi_startproc
	@ Naked Function: prologue and epilogue provided by programmer.
	@ args = 0, pretend = 0, frame = 0
	@ frame_needed = 0, uses_anonymous_args = 0
	.loc 4 890 2
	.syntax unified
@ 890 "../../../nRF5_SDK_14.2.0/components/softdevice/s132/headers/nrf_soc.h" 1
	svc #70
bx r14
@ 0 "" 2
	.thumb
	.syntax unified
	nop
	mov	r0, r3
	.cfi_endproc
.LFE203:
	.size	sd_radio_session_close, .-sd_radio_session_close
	.section	.text.sd_radio_request,"ax",%progbits
	.align	1
	.syntax unified
	.thumb
	.thumb_func
	.type	sd_radio_request, %function
sd_radio_request:
.LFB204:
	.loc 4 922 2
	.cfi_startproc
	@ Naked Function: prologue and epilogue provided by programmer.
	@ args = 0, pretend = 0, frame = 0
	@ frame_needed = 0, uses_anonymous_args = 0
	.loc 4 922 2
	.syntax unified
@ 922 "../../../nRF5_SDK_14.2.0/components/softdevice/s132/headers/nrf_soc.h" 1
	svc #71
bx r14
@ 0 "" 2
	.thumb
	.syntax unified
	nop
	mov	r0, r3
	.cfi_endproc
.LFE204:
	.size	sd_radio_request, .-sd_radio_request
	.section	.text.nrf_delay_us,"ax",%progbits
	.align	1
	.syntax unified
	.thumb
	.thumb_func
	.type	nrf_delay_us, %function
nrf_delay_us:
.LFB205:
	.file 5 "../../../nRF5_SDK_14.2.0/components/drivers_nrf/delay/nrf_delay.h"
	.loc 5 168 1
	.cfi_startproc
	@ args = 0, pretend = 0, frame = 16
	@ frame_needed = 0, uses_anonymous_args = 0
	@ link register save eliminated.
	sub	sp, sp, #16
	.cfi_def_cfa_offset 16
	str	r0, [sp, #4]
	.loc 5 169 20
	ldr	r3, .L72
	str	r3, [sp, #12]
	.loc 5 170 8
	ldr	r3, [sp, #4]
	cmp	r3, #0
	beq	.L71
	.loc 5 172 1
	ldr	r3, .L72+4
	ldr	r2, [r3]
	ldr	r1, [sp, #12]
	ldr	r3, [sp, #4]
	.syntax unified
@ 172 "../../../nRF5_SDK_14.2.0/components/drivers_nrf/delay/nrf_delay.h" 1
	1:
 NOP
 NOP
 NOP
 NOP
 NOP
 NOP
 NOP
 NOP
 CMP r2, r1
 BEQ.N 2f
 NOP
 NOP
 NOP
 NOP
 NOP
 NOP
 NOP
 NOP
 NOP
 NOP
 NOP
 NOP
 NOP
 NOP
 NOP
 NOP
 NOP
 NOP
 NOP
 NOP
 NOP
 NOP
 NOP
 NOP
 NOP
 NOP
 NOP
 NOP
 NOP
 NOP
 NOP
 NOP
 NOP
 NOP
 NOP
 NOP
 NOP
 NOP
 NOP
 NOP
 NOP
 NOP
 NOP
 NOP
 NOP
 NOP
 NOP
 NOP
2:
 SUBS r3, r3, #1
 BNE.N 1b

@ 0 "" 2
	.thumb
	.syntax unified
	str	r3, [sp, #4]
.L71:
	.loc 5 256 1
	nop
	add	sp, sp, #16
	.cfi_def_cfa_offset 0
	@ sp needed
	bx	lr
.L73:
	.align	2
.L72:
	.word	16000000
	.word	SystemCoreClock
	.cfi_endproc
.LFE205:
	.size	nrf_delay_us, .-nrf_delay_us
	.section	.bss.m_op_queue,"aw",%nobits
	.align	2
	.type	m_op_queue, %object
	.size	m_op_queue, 268
m_op_queue:
	.space	268
	.section	.bss.mp_timer_id_head,"aw",%nobits
	.align	2
	.type	mp_timer_id_head, %object
	.size	mp_timer_id_head, 4
mp_timer_id_head:
	.space	4
	.section	.bss.m_ticks_latest,"aw",%nobits
	.align	2
	.type	m_ticks_latest, %object
	.size	m_ticks_latest, 4
m_ticks_latest:
	.space	4
	.section	.bss.m_ticks_elapsed,"aw",%nobits
	.align	2
	.type	m_ticks_elapsed, %object
	.size	m_ticks_elapsed, 8
m_ticks_elapsed:
	.space	8
	.section	.bss.m_ticks_elapsed_q_read_ind,"aw",%nobits
	.type	m_ticks_elapsed_q_read_ind, %object
	.size	m_ticks_elapsed_q_read_ind, 1
m_ticks_elapsed_q_read_ind:
	.space	1
	.section	.bss.m_ticks_elapsed_q_write_ind,"aw",%nobits
	.type	m_ticks_elapsed_q_write_ind, %object
	.size	m_ticks_elapsed_q_write_ind, 1
m_ticks_elapsed_q_write_ind:
	.space	1
	.section	.bss.m_rtc1_running,"aw",%nobits
	.type	m_rtc1_running, %object
	.size	m_rtc1_running, 1
m_rtc1_running:
	.space	1
	.section	.bss.m_rtc1_reset,"aw",%nobits
	.type	m_rtc1_reset, %object
	.size	m_rtc1_reset, 1
m_rtc1_reset:
	.space	1
	.section	.text.rtc1_init,"ax",%progbits
	.align	1
	.syntax unified
	.thumb
	.thumb_func
	.type	rtc1_init, %function
rtc1_init:
.LFB221:
	.loc 1 159 1
	.cfi_startproc
	@ args = 0, pretend = 0, frame = 8
	@ frame_needed = 0, uses_anonymous_args = 0
	push	{lr}
	.cfi_def_cfa_offset 4
	.cfi_offset 14, -4
	sub	sp, sp, #12
	.cfi_def_cfa_offset 16
	str	r0, [sp, #4]
	.loc 1 160 13
	ldr	r2, .L75
	.loc 1 160 25
	ldr	r3, [sp, #4]
	str	r3, [r2, #1288]
	.loc 1 161 5
	movs	r1, #7
	movs	r0, #17
	bl	__NVIC_SetPriority
	.loc 1 162 1
	nop
	add	sp, sp, #12
	.cfi_def_cfa_offset 4
	@ sp needed
	ldr	pc, [sp], #4
.L76:
	.align	2
.L75:
	.word	1073811456
	.cfi_endproc
.LFE221:
	.size	rtc1_init, .-rtc1_init
	.section	.text.rtc1_start,"ax",%progbits
	.align	1
	.syntax unified
	.thumb
	.thumb_func
	.type	rtc1_start, %function
rtc1_start:
.LFB222:
	.loc 1 168 1
	.cfi_startproc
	@ args = 0, pretend = 0, frame = 0
	@ frame_needed = 0, uses_anonymous_args = 0
	push	{r3, lr}
	.cfi_def_cfa_offset 8
	.cfi_offset 3, -8
	.cfi_offset 14, -4
	.loc 1 169 13
	ldr	r3, .L78
	.loc 1 169 24
	mov	r2, #65536
	str	r2, [r3, #836]
	.loc 1 170 13
	ldr	r3, .L78
	.loc 1 170 24
	mov	r2, #65536
	str	r2, [r3, #772]
	.loc 1 172 5
	movs	r0, #17
	bl	__NVIC_ClearPendingIRQ
	.loc 1 173 5
	movs	r0, #17
	bl	__NVIC_EnableIRQ
	.loc 1 175 13
	ldr	r3, .L78
	.loc 1 175 27
	movs	r2, #1
	str	r2, [r3]
	.loc 1 176 5
	movs	r0, #47
	bl	nrf_delay_us
	.loc 1 178 20
	ldr	r3, .L78+4
	movs	r2, #1
	strb	r2, [r3]
	.loc 1 179 1
	nop
	pop	{r3, pc}
.L79:
	.align	2
.L78:
	.word	1073811456
	.word	m_rtc1_running
	.cfi_endproc
.LFE222:
	.size	rtc1_start, .-rtc1_start
	.section	.text.rtc1_stop,"ax",%progbits
	.align	1
	.syntax unified
	.thumb
	.thumb_func
	.type	rtc1_stop, %function
rtc1_stop:
.LFB223:
	.loc 1 185 1
	.cfi_startproc
	@ args = 0, pretend = 0, frame = 0
	@ frame_needed = 0, uses_anonymous_args = 0
	push	{r3, lr}
	.cfi_def_cfa_offset 8
	.cfi_offset 3, -8
	.cfi_offset 14, -4
	.loc 1 186 5
	movs	r0, #17
	bl	__NVIC_DisableIRQ
	.loc 1 188 13
	ldr	r3, .L81
	.loc 1 188 24
	mov	r2, #65536
	str	r2, [r3, #840]
	.loc 1 189 13
	ldr	r3, .L81
	.loc 1 189 24
	mov	r2, #65536
	str	r2, [r3, #776]
	.loc 1 191 13
	ldr	r3, .L81
	.loc 1 191 26
	movs	r2, #1
	str	r2, [r3, #4]
	.loc 1 192 5
	movs	r0, #47
	bl	nrf_delay_us
	.loc 1 194 13
	ldr	r3, .L81
	.loc 1 194 27
	movs	r2, #1
	str	r2, [r3, #8]
	.loc 1 195 27
	ldr	r3, .L81+4
	movs	r2, #0
	str	r2, [r3]
	.loc 1 196 5
	movs	r0, #47
	bl	nrf_delay_us
	.loc 1 198 20
	ldr	r3, .L81+8
	movs	r2, #0
	strb	r2, [r3]
	.loc 1 199 1
	nop
	pop	{r3, pc}
.L82:
	.align	2
.L81:
	.word	1073811456
	.word	m_ticks_latest
	.word	m_rtc1_running
	.cfi_endproc
.LFE223:
	.size	rtc1_stop, .-rtc1_stop
	.section	.text.rtc1_counter_get,"ax",%progbits
	.align	1
	.syntax unified
	.thumb
	.thumb_func
	.type	rtc1_counter_get, %function
rtc1_counter_get:
.LFB224:
	.loc 1 207 1
	.cfi_startproc
	@ args = 0, pretend = 0, frame = 0
	@ frame_needed = 0, uses_anonymous_args = 0
	@ link register save eliminated.
	.loc 1 208 20
	ldr	r3, .L85
	ldr	r3, [r3, #1284]
	.loc 1 209 1
	mov	r0, r3
	bx	lr
.L86:
	.align	2
.L85:
	.word	1073811456
	.cfi_endproc
.LFE224:
	.size	rtc1_counter_get, .-rtc1_counter_get
	.section	.text.ticks_diff_get,"ax",%progbits
	.align	1
	.syntax unified
	.thumb
	.thumb_func
	.type	ticks_diff_get, %function
ticks_diff_get:
.LFB225:
	.loc 1 217 1
	.cfi_startproc
	@ args = 0, pretend = 0, frame = 8
	@ frame_needed = 0, uses_anonymous_args = 0
	@ link register save eliminated.
	sub	sp, sp, #8
	.cfi_def_cfa_offset 8
	str	r0, [sp, #4]
	str	r1, [sp]
	.loc 1 218 24
	ldr	r2, [sp, #4]
	ldr	r3, [sp]
	subs	r3, r2, r3
	.loc 1 218 37
	bic	r3, r3, #-16777216
	.loc 1 219 1
	mov	r0, r3
	add	sp, sp, #8
	.cfi_def_cfa_offset 0
	@ sp needed
	bx	lr
	.cfi_endproc
.LFE225:
	.size	ticks_diff_get, .-ticks_diff_get
	.section	.text.rtc1_compare0_set,"ax",%progbits
	.align	1
	.syntax unified
	.thumb
	.thumb_func
	.type	rtc1_compare0_set, %function
rtc1_compare0_set:
.LFB226:
	.loc 1 228 1
	.cfi_startproc
	@ args = 0, pretend = 0, frame = 8
	@ frame_needed = 0, uses_anonymous_args = 0
	@ link register save eliminated.
	sub	sp, sp, #8
	.cfi_def_cfa_offset 8
	str	r0, [sp, #4]
	.loc 1 229 13
	ldr	r2, .L90
	.loc 1 229 21
	ldr	r3, [sp, #4]
	str	r3, [r2, #1344]
	.loc 1 230 1
	nop
	add	sp, sp, #8
	.cfi_def_cfa_offset 0
	@ sp needed
	bx	lr
.L91:
	.align	2
.L90:
	.word	1073811456
	.cfi_endproc
.LFE226:
	.size	rtc1_compare0_set, .-rtc1_compare0_set
	.section	.text.timer_list_insert,"ax",%progbits
	.align	1
	.syntax unified
	.thumb
	.thumb_func
	.type	timer_list_insert, %function
timer_list_insert:
.LFB227:
	.loc 1 238 1
	.cfi_startproc
	@ args = 0, pretend = 0, frame = 24
	@ frame_needed = 0, uses_anonymous_args = 0
	@ link register save eliminated.
	sub	sp, sp, #24
	.cfi_def_cfa_offset 24
	str	r0, [sp, #4]
	.loc 1 239 26
	ldr	r3, .L101
	ldr	r3, [r3]
	.loc 1 239 8
	cmp	r3, #0
	bne	.L93
	.loc 1 241 26
	ldr	r2, .L101
	ldr	r3, [sp, #4]
	str	r3, [r2]
	.loc 1 279 1
	b	.L100
.L93:
	.loc 1 245 20
	ldr	r3, [sp, #4]
	ldr	r2, [r3]
	.loc 1 245 57
	ldr	r3, .L101
	ldr	r3, [r3]
	ldr	r3, [r3]
	.loc 1 245 12
	cmp	r2, r3
	bhi	.L95
	.loc 1 247 29
	ldr	r3, .L101
	ldr	r3, [r3]
	ldr	r1, [r3]
	.loc 1 247 57
	ldr	r3, [sp, #4]
	ldr	r2, [r3]
	.loc 1 247 29
	ldr	r3, .L101
	ldr	r3, [r3]
	.loc 1 247 47
	subs	r2, r1, r2
	str	r2, [r3]
	.loc 1 249 29
	ldr	r3, .L101
	ldr	r2, [r3]
	ldr	r3, [sp, #4]
	str	r2, [r3, #28]
	.loc 1 250 30
	ldr	r2, .L101
	ldr	r3, [sp, #4]
	str	r3, [r2]
	.loc 1 279 1
	b	.L100
.L95:
.LBB10:
	.loc 1 258 31
	ldr	r3, [sp, #4]
	ldr	r3, [r3]
	str	r3, [sp, #12]
	.loc 1 259 31
	ldr	r3, .L101
	ldr	r3, [r3]
	str	r3, [sp, #20]
	.loc 1 260 31
	ldr	r3, .L101
	ldr	r3, [r3]
	str	r3, [sp, #16]
	.loc 1 262 19
	b	.L96
.L98:
	.loc 1 264 47
	ldr	r3, [sp, #16]
	ldr	r3, [r3]
	.loc 1 264 35
	ldr	r2, [sp, #12]
	subs	r3, r2, r3
	str	r3, [sp, #12]
	.loc 1 265 36
	ldr	r3, [sp, #16]
	str	r3, [sp, #20]
	.loc 1 266 36
	ldr	r3, [sp, #16]
	ldr	r3, [r3, #28]
	str	r3, [sp, #16]
.L96:
	.loc 1 262 40
	ldr	r3, [sp, #16]
	cmp	r3, #0
	beq	.L97
	.loc 1 262 71 discriminator 1
	ldr	r3, [sp, #16]
	ldr	r3, [r3]
	.loc 1 262 40 discriminator 1
	ldr	r2, [sp, #12]
	cmp	r2, r3
	bhi	.L98
.L97:
	.loc 1 269 16
	ldr	r3, [sp, #16]
	cmp	r3, #0
	beq	.L99
	.loc 1 271 26
	ldr	r3, [sp, #16]
	ldr	r2, [r3]
	.loc 1 271 44
	ldr	r3, [sp, #12]
	subs	r2, r2, r3
	ldr	r3, [sp, #16]
	str	r2, [r3]
.L99:
	.loc 1 274 38
	ldr	r3, [sp, #4]
	ldr	r2, [sp, #12]
	str	r2, [r3]
	.loc 1 275 38
	ldr	r3, [sp, #4]
	ldr	r2, [sp, #16]
	str	r2, [r3, #28]
	.loc 1 276 38
	ldr	r3, [sp, #20]
	ldr	r2, [sp, #4]
	str	r2, [r3, #28]
.L100:
.LBE10:
	.loc 1 279 1
	nop
	add	sp, sp, #24
	.cfi_def_cfa_offset 0
	@ sp needed
	bx	lr
.L102:
	.align	2
.L101:
	.word	mp_timer_id_head
	.cfi_endproc
.LFE227:
	.size	timer_list_insert, .-timer_list_insert
	.section	.text.timer_list_remove,"ax",%progbits
	.align	1
	.syntax unified
	.thumb
	.thumb_func
	.type	timer_list_remove, %function
timer_list_remove:
.LFB228:
	.loc 1 289 1
	.cfi_startproc
	@ args = 0, pretend = 0, frame = 24
	@ frame_needed = 0, uses_anonymous_args = 0
	push	{lr}
	.cfi_def_cfa_offset 4
	.cfi_offset 14, -4
	sub	sp, sp, #28
	.cfi_def_cfa_offset 32
	str	r0, [sp, #4]
	.loc 1 296 16
	ldr	r3, .L113
	ldr	r3, [r3]
	str	r3, [sp, #12]
	.loc 1 297 16
	ldr	r3, .L113
	ldr	r3, [r3]
	str	r3, [sp, #20]
	.loc 1 298 16
	ldr	r3, [sp, #20]
	str	r3, [sp, #16]
	.loc 1 300 11
	b	.L104
.L107:
	.loc 1 302 12
	ldr	r2, [sp, #16]
	ldr	r3, [sp, #4]
	cmp	r2, r3
	beq	.L112
	.loc 1 306 20
	ldr	r3, [sp, #16]
	str	r3, [sp, #20]
	.loc 1 307 20
	ldr	r3, [sp, #16]
	ldr	r3, [r3, #28]
	str	r3, [sp, #16]
.L104:
	.loc 1 300 22
	ldr	r3, [sp, #16]
	cmp	r3, #0
	bne	.L107
	b	.L106
.L112:
	.loc 1 304 13
	nop
.L106:
	.loc 1 311 8
	ldr	r3, [sp, #16]
	cmp	r3, #0
	bne	.L108
	.loc 1 313 16
	movs	r3, #0
	b	.L109
.L108:
	.loc 1 317 8
	ldr	r2, [sp, #20]
	ldr	r3, [sp, #16]
	cmp	r2, r3
	bne	.L110
	.loc 1 319 44
	ldr	r3, .L113
	ldr	r3, [r3]
	ldr	r3, [r3, #28]
	.loc 1 319 26
	ldr	r2, .L113
	str	r3, [r2]
	.loc 1 322 30
	ldr	r3, .L113
	ldr	r3, [r3]
	.loc 1 322 12
	cmp	r3, #0
	bne	.L110
	.loc 1 324 21
	ldr	r3, .L113+4
	.loc 1 324 35
	movs	r2, #1
	str	r2, [r3, #8]
	.loc 1 325 35
	ldr	r3, .L113+8
	movs	r2, #0
	str	r2, [r3]
	.loc 1 326 35
	ldr	r3, .L113+12
	movs	r2, #1
	strb	r2, [r3]
	.loc 1 327 13
	movs	r0, #47
	bl	nrf_delay_us
.L110:
	.loc 1 332 13
	ldr	r3, [sp, #16]
	ldr	r3, [r3]
	str	r3, [sp, #8]
	.loc 1 335 33
	ldr	r3, [sp, #16]
	ldr	r2, [r3, #28]
	.loc 1 335 22
	ldr	r3, [sp, #20]
	str	r2, [r3, #28]
	.loc 1 338 15
	ldr	r3, [sp, #20]
	ldr	r3, [r3, #28]
	str	r3, [sp, #16]
	.loc 1 339 8
	ldr	r3, [sp, #16]
	cmp	r3, #0
	beq	.L111
	.loc 1 341 18
	ldr	r3, [sp, #16]
	ldr	r2, [r3]
	.loc 1 341 36
	ldr	r3, [sp, #8]
	add	r2, r2, r3
	ldr	r3, [sp, #16]
	str	r2, [r3]
.L111:
	.loc 1 344 24
	ldr	r3, .L113
	ldr	r3, [r3]
	ldr	r2, [sp, #12]
	cmp	r2, r3
	ite	ne
	movne	r3, #1
	moveq	r3, #0
	uxtb	r3, r3
.L109:
	.loc 1 345 1
	mov	r0, r3
	add	sp, sp, #28
	.cfi_def_cfa_offset 4
	@ sp needed
	ldr	pc, [sp], #4
.L114:
	.align	2
.L113:
	.word	mp_timer_id_head
	.word	1073811456
	.word	m_ticks_latest
	.word	m_rtc1_reset
	.cfi_endproc
.LFE228:
	.size	timer_list_remove, .-timer_list_remove
	.section	.text.timer_timeouts_check_sched,"ax",%progbits
	.align	1
	.syntax unified
	.thumb
	.thumb_func
	.type	timer_timeouts_check_sched, %function
timer_timeouts_check_sched:
.LFB229:
	.loc 1 351 1
	.cfi_startproc
	@ args = 0, pretend = 0, frame = 0
	@ frame_needed = 0, uses_anonymous_args = 0
	push	{r3, lr}
	.cfi_def_cfa_offset 8
	.cfi_offset 3, -8
	.cfi_offset 14, -4
	.loc 1 352 5
	movs	r0, #17
	bl	__NVIC_SetPendingIRQ
	.loc 1 353 1
	nop
	pop	{r3, pc}
	.cfi_endproc
.LFE229:
	.size	timer_timeouts_check_sched, .-timer_timeouts_check_sched
	.section	.text.timer_list_handler_sched,"ax",%progbits
	.align	1
	.syntax unified
	.thumb
	.thumb_func
	.type	timer_list_handler_sched, %function
timer_list_handler_sched:
.LFB230:
	.loc 1 359 1
	.cfi_startproc
	@ args = 0, pretend = 0, frame = 0
	@ frame_needed = 0, uses_anonymous_args = 0
	push	{r3, lr}
	.cfi_def_cfa_offset 8
	.cfi_offset 3, -8
	.cfi_offset 14, -4
	.loc 1 360 5
	movs	r0, #20
	bl	__NVIC_SetPendingIRQ
	.loc 1 361 1
	nop
	pop	{r3, pc}
	.cfi_endproc
.LFE230:
	.size	timer_list_handler_sched, .-timer_list_handler_sched
	.section	.text.timeout_handler_exec,"ax",%progbits
	.align	1
	.syntax unified
	.thumb
	.thumb_func
	.type	timeout_handler_exec, %function
timeout_handler_exec:
.LFB231:
	.loc 1 379 1
	.cfi_startproc
	@ args = 0, pretend = 0, frame = 8
	@ frame_needed = 0, uses_anonymous_args = 0
	push	{lr}
	.cfi_def_cfa_offset 4
	.cfi_offset 14, -4
	sub	sp, sp, #12
	.cfi_def_cfa_offset 16
	str	r0, [sp, #4]
	.loc 1 388 12
	ldr	r3, [sp, #4]
	ldr	r3, [r3, #20]
	.loc 1 388 5
	ldr	r2, [sp, #4]
	ldr	r2, [r2, #24]
	mov	r0, r2
	blx	r3
.LVL0:
	.loc 1 390 1
	nop
	add	sp, sp, #12
	.cfi_def_cfa_offset 4
	@ sp needed
	ldr	pc, [sp], #4
	.cfi_endproc
.LFE231:
	.size	timeout_handler_exec, .-timeout_handler_exec
	.section	.text.timer_timeouts_check,"ax",%progbits
	.align	1
	.syntax unified
	.thumb
	.thumb_func
	.type	timer_timeouts_check, %function
timer_timeouts_check:
.LFB232:
	.loc 1 396 1
	.cfi_startproc
	@ args = 0, pretend = 0, frame = 16
	@ frame_needed = 0, uses_anonymous_args = 0
	push	{lr}
	.cfi_def_cfa_offset 4
	.cfi_offset 14, -4
	sub	sp, sp, #20
	.cfi_def_cfa_offset 24
	.loc 1 398 26
	ldr	r3, .L127
	ldr	r3, [r3]
	.loc 1 398 8
	cmp	r3, #0
	beq	.L125
.LBB11:
	.loc 1 406 23
	movs	r3, #0
	str	r3, [sp, #4]
	.loc 1 409 25
	bl	rtc1_counter_get
	mov	r2, r0
	.loc 1 409 25 is_stmt 0 discriminator 1
	ldr	r3, .L127+4
	ldr	r3, [r3]
	mov	r1, r3
	mov	r0, r2
	bl	ticks_diff_get
	str	r0, [sp, #8]
	.loc 1 412 17 is_stmt 1
	ldr	r3, .L127
	ldr	r3, [r3]
	str	r3, [sp, #12]
	.loc 1 415 15
	b	.L120
.L123:
	.loc 1 418 40
	ldr	r3, [sp, #12]
	ldr	r3, [r3]
	.loc 1 418 16
	ldr	r2, [sp, #8]
	cmp	r2, r3
	bcc	.L126
	.loc 1 424 37
	ldr	r3, [sp, #12]
	ldr	r3, [r3]
	.loc 1 424 27
	ldr	r2, [sp, #8]
	subs	r3, r2, r3
	str	r3, [sp, #8]
	.loc 1 425 37
	ldr	r3, [sp, #12]
	ldr	r3, [r3]
	.loc 1 425 27
	ldr	r2, [sp, #4]
	add	r3, r3, r2
	str	r3, [sp, #4]
	.loc 1 428 30
	ldr	r3, [sp, #12]
	str	r3, [sp]
	.loc 1 429 21
	ldr	r3, [sp, #12]
	ldr	r3, [r3, #28]
	str	r3, [sp, #12]
	.loc 1 432 33
	ldr	r3, [sp]
	ldrb	r3, [r3, #16]	@ zero_extendqisi2
	.loc 1 432 16
	cmp	r3, #0
	beq	.L120
	.loc 1 434 46
	ldr	r3, [sp]
	movs	r2, #0
	strb	r2, [r3, #16]
	.loc 1 435 17
	ldr	r0, [sp]
	bl	timeout_handler_exec
.L120:
	.loc 1 415 24
	ldr	r3, [sp, #12]
	cmp	r3, #0
	bne	.L123
	b	.L122
.L126:
	.loc 1 420 17
	nop
.L122:
	.loc 1 440 40
	ldr	r3, .L127+8
	ldrb	r2, [r3]	@ zero_extendqisi2
	ldr	r3, .L127+12
	ldrb	r3, [r3]	@ zero_extendqisi2
	.loc 1 440 12
	cmp	r2, r3
	bne	.L124
	.loc 1 447 17
	ldr	r3, .L127+12
	ldrb	r3, [r3]	@ zero_extendqisi2
	adds	r3, r3, #1
	uxtb	r2, r3
	.loc 1 447 16
	ldr	r3, .L127+12
	strb	r2, [r3]
	.loc 1 447 17
	ldr	r3, .L127+12
	ldrb	r3, [r3]	@ zero_extendqisi2
	.loc 1 447 16
	cmp	r3, #2
	bne	.L124
	.loc 1 451 45
	ldr	r3, .L127+12
	movs	r2, #0
	strb	r2, [r3]
.L124:
	.loc 1 456 24
	ldr	r3, .L127+12
	ldrb	r3, [r3]	@ zero_extendqisi2
	mov	r1, r3
	.loc 1 456 54
	ldr	r2, .L127+16
	ldr	r3, [sp, #4]
	str	r3, [r2, r1, lsl #2]
	.loc 1 458 9
	bl	timer_list_handler_sched
.L125:
.LBE11:
	.loc 1 460 1
	nop
	add	sp, sp, #20
	.cfi_def_cfa_offset 4
	@ sp needed
	ldr	pc, [sp], #4
.L128:
	.align	2
.L127:
	.word	mp_timer_id_head
	.word	m_ticks_latest
	.word	m_ticks_elapsed_q_read_ind
	.word	m_ticks_elapsed_q_write_ind
	.word	m_ticks_elapsed
	.cfi_endproc
.LFE232:
	.size	timer_timeouts_check, .-timer_timeouts_check
	.section	.text.elapsed_ticks_acquire,"ax",%progbits
	.align	1
	.syntax unified
	.thumb
	.thumb_func
	.type	elapsed_ticks_acquire, %function
elapsed_ticks_acquire:
.LFB233:
	.loc 1 470 1
	.cfi_startproc
	@ args = 0, pretend = 0, frame = 8
	@ frame_needed = 0, uses_anonymous_args = 0
	@ link register save eliminated.
	sub	sp, sp, #8
	.cfi_def_cfa_offset 8
	str	r0, [sp, #4]
	.loc 1 472 36
	ldr	r3, .L133
	ldrb	r2, [r3]	@ zero_extendqisi2
	ldr	r3, .L133+4
	ldrb	r3, [r3]	@ zero_extendqisi2
	.loc 1 472 8
	cmp	r2, r3
	beq	.L130
	.loc 1 475 35
	ldr	r3, .L133
	ldrb	r3, [r3]	@ zero_extendqisi2
	adds	r3, r3, #1
	uxtb	r2, r3
	ldr	r3, .L133
	strb	r2, [r3]
	.loc 1 476 40
	ldr	r3, .L133
	ldrb	r3, [r3]	@ zero_extendqisi2
	.loc 1 476 12
	cmp	r3, #2
	bne	.L131
	.loc 1 478 40
	ldr	r3, .L133
	movs	r2, #0
	strb	r2, [r3]
.L131:
	.loc 1 481 43
	ldr	r3, .L133
	ldrb	r3, [r3]	@ zero_extendqisi2
	mov	r2, r3
	ldr	r3, .L133+8
	ldr	r2, [r3, r2, lsl #2]
	.loc 1 481 26
	ldr	r3, [sp, #4]
	str	r2, [r3]
	.loc 1 483 27
	ldr	r3, [sp, #4]
	ldr	r2, [r3]
	.loc 1 483 24
	ldr	r3, .L133+12
	ldr	r3, [r3]
	add	r3, r3, r2
	ldr	r2, .L133+12
	str	r3, [r2]
	.loc 1 484 24
	ldr	r3, .L133+12
	ldr	r3, [r3]
	bic	r3, r3, #-16777216
	ldr	r2, .L133+12
	str	r3, [r2]
	.loc 1 486 16
	movs	r3, #1
	b	.L132
.L130:
	.loc 1 491 26
	ldr	r3, [sp, #4]
	movs	r2, #0
	str	r2, [r3]
	.loc 1 492 16
	movs	r3, #0
.L132:
	.loc 1 494 1
	mov	r0, r3
	add	sp, sp, #8
	.cfi_def_cfa_offset 0
	@ sp needed
	bx	lr
.L134:
	.align	2
.L133:
	.word	m_ticks_elapsed_q_read_ind
	.word	m_ticks_elapsed_q_write_ind
	.word	m_ticks_elapsed
	.word	m_ticks_latest
	.cfi_endproc
.LFE233:
	.size	elapsed_ticks_acquire, .-elapsed_ticks_acquire
	.section	.text.expired_timers_handler,"ax",%progbits
	.align	1
	.syntax unified
	.thumb
	.thumb_func
	.type	expired_timers_handler, %function
expired_timers_handler:
.LFB234:
	.loc 1 506 1
	.cfi_startproc
	@ args = 0, pretend = 0, frame = 32
	@ frame_needed = 0, uses_anonymous_args = 0
	@ link register save eliminated.
	sub	sp, sp, #32
	.cfi_def_cfa_offset 32
	str	r0, [sp, #12]
	str	r1, [sp, #8]
	str	r2, [sp, #4]
	.loc 1 507 14
	movs	r3, #0
	str	r3, [sp, #28]
	.loc 1 509 11
	b	.L136
.L139:
.LBB12:
	.loc 1 515 17
	ldr	r3, .L140
	ldr	r3, [r3]
	str	r3, [sp, #24]
	.loc 1 518 36
	ldr	r3, [sp, #24]
	ldr	r3, [r3]
	.loc 1 518 12
	ldr	r2, [sp, #12]
	cmp	r2, r3
	bcs	.L137
	.loc 1 520 20
	ldr	r3, [sp, #24]
	ldr	r2, [r3]
	.loc 1 520 38
	ldr	r3, [sp, #12]
	subs	r2, r2, r3
	ldr	r3, [sp, #24]
	str	r2, [r3]
	.loc 1 521 13
	b	.L138
.L137:
	.loc 1 525 33
	ldr	r3, [sp, #24]
	ldr	r3, [r3]
	.loc 1 525 23
	ldr	r2, [sp, #12]
	subs	r3, r2, r3
	str	r3, [sp, #12]
	.loc 1 526 33
	ldr	r3, [sp, #24]
	ldr	r3, [r3]
	.loc 1 526 23
	ldr	r2, [sp, #28]
	add	r3, r3, r2
	str	r3, [sp, #28]
	.loc 1 529 34
	ldr	r3, [sp, #24]
	movs	r2, #0
	str	r2, [r3]
	.loc 1 532 26
	ldr	r3, .L140
	ldr	r3, [r3]
	str	r3, [sp, #20]
	.loc 1 533 35
	ldr	r3, [sp, #24]
	ldr	r3, [r3, #28]
	.loc 1 533 26
	ldr	r2, .L140
	str	r3, [r2]
	.loc 1 536 20
	ldr	r3, [sp, #24]
	ldr	r3, [r3, #12]
	.loc 1 536 12
	cmp	r3, #0
	beq	.L136
	.loc 1 538 61
	ldr	r2, [sp, #8]
	ldr	r3, [sp, #28]
	add	r3, r3, r2
	.loc 1 538 78
	bic	r2, r3, #-16777216
	.loc 1 538 43
	ldr	r3, [sp, #24]
	str	r2, [r3, #4]
	.loc 1 539 52
	ldr	r3, [sp, #24]
	ldr	r2, [r3, #12]
	.loc 1 539 43
	ldr	r3, [sp, #24]
	str	r2, [r3, #8]
	.loc 1 540 45
	ldr	r3, [sp, #4]
	ldr	r2, [r3]
	.loc 1 540 43
	ldr	r3, [sp, #24]
	str	r2, [r3, #28]
	.loc 1 541 43
	ldr	r3, [sp, #4]
	ldr	r2, [sp, #20]
	str	r2, [r3]
.L136:
.LBE12:
	.loc 1 509 29
	ldr	r3, .L140
	ldr	r3, [r3]
	cmp	r3, #0
	bne	.L139
	.loc 1 544 1
	nop
.L138:
	nop
	add	sp, sp, #32
	.cfi_def_cfa_offset 0
	@ sp needed
	bx	lr
.L141:
	.align	2
.L140:
	.word	mp_timer_id_head
	.cfi_endproc
.LFE234:
	.size	expired_timers_handler, .-expired_timers_handler
	.section	.text.list_insertions_handler,"ax",%progbits
	.align	1
	.syntax unified
	.thumb
	.thumb_func
	.type	list_insertions_handler, %function
list_insertions_handler:
.LFB235:
	.loc 1 554 1
	.cfi_startproc
	@ args = 0, pretend = 0, frame = 32
	@ frame_needed = 0, uses_anonymous_args = 0
	push	{lr}
	.cfi_def_cfa_offset 4
	.cfi_offset 14, -4
	sub	sp, sp, #36
	.cfi_def_cfa_offset 40
	str	r0, [sp, #4]
	.loc 1 555 10
	movs	r3, #0
	strb	r3, [sp, #31]
	.loc 1 560 25
	ldr	r3, .L164
	ldr	r3, [r3]
	str	r3, [sp, #20]
	.loc 1 563 11
	b	.L143
.L158:
.LBB13:
	.loc 1 567 12
	ldr	r3, [sp, #4]
	cmp	r3, #0
	beq	.L144
	.loc 1 569 31
	ldr	r3, [sp, #4]
	str	r3, [sp, #24]
	.loc 1 570 33
	ldr	r3, [sp, #24]
	ldr	r3, [r3, #28]
	str	r3, [sp, #4]
	b	.L145
.L144:
.LBB14:
	.loc 1 574 79
	ldr	r3, .L164+4
	ldrb	r3, [r3]	@ zero_extendqisi2
	mov	r2, r3
	.loc 1 574 31
	mov	r3, r2
	lsls	r3, r3, #1
	add	r3, r3, r2
	lsls	r3, r3, #3
	ldr	r2, .L164+4
	add	r3, r3, r2
	adds	r3, r3, #4
	str	r3, [sp, #16]
	.loc 1 576 23
	ldr	r3, .L164+4
	ldrb	r3, [r3]	@ zero_extendqisi2
	.loc 1 576 29
	adds	r3, r3, #1
	uxtb	r2, r3
	ldr	r3, .L164+4
	strb	r2, [r3]
	.loc 1 577 27
	ldr	r3, .L164+4
	ldrb	r2, [r3]	@ zero_extendqisi2
	.loc 1 577 47
	ldr	r3, .L164+4
	ldrb	r3, [r3, #2]	@ zero_extendqisi2
	.loc 1 577 16
	cmp	r2, r3
	bne	.L146
	.loc 1 579 34
	ldr	r3, .L164+4
	movs	r2, #0
	strb	r2, [r3]
.L146:
	.loc 1 582 21
	ldr	r3, [sp, #16]
	ldr	r3, [r3, #4]
	str	r3, [sp, #24]
	.loc 1 584 30
	ldr	r3, [sp, #16]
	ldrb	r3, [r3]	@ zero_extendqisi2
	.loc 1 584 13
	cmp	r3, #3
	beq	.L151
	cmp	r3, #3
	bgt	.L143
	cmp	r3, #1
	beq	.L163
	cmp	r3, #2
	bne	.L143
	.loc 1 588 25
	ldr	r3, [sp, #16]
	ldr	r3, [r3, #4]
	mov	r0, r3
	bl	timer_list_remove
	mov	r3, r0
	.loc 1 588 24 discriminator 1
	cmp	r3, #0
	beq	.L150
	.loc 1 590 40
	movs	r3, #1
	strb	r3, [sp, #31]
.L150:
	.loc 1 593 41
	ldr	r3, [sp, #24]
	movs	r2, #0
	strb	r2, [r3, #16]
	.loc 1 594 21
	b	.L143
.L152:
.LBB15:
	.loc 1 600 40
	ldr	r3, .L164
	ldr	r3, [r3]
	str	r3, [sp, #12]
	.loc 1 602 44
	ldr	r3, [sp, #12]
	movs	r2, #0
	strb	r2, [r3, #16]
	.loc 1 603 53
	ldr	r3, [sp, #12]
	ldr	r3, [r3, #28]
	.loc 1 603 45
	ldr	r2, .L164
	str	r3, [r2]
.L151:
.LBE15:
	.loc 1 598 45
	ldr	r3, .L164
	ldr	r3, [r3]
	cmp	r3, #0
	bne	.L152
	.loc 1 605 21
	b	.L143
.L163:
	.loc 1 607 21
	nop
	.loc 1 613 24
	ldr	r3, [sp, #24]
	ldrb	r3, [r3, #16]	@ zero_extendqisi2
	.loc 1 613 16
	cmp	r3, #0
	beq	.L154
	.loc 1 615 17
	b	.L143
.L154:
	.loc 1 618 71
	ldr	r3, [sp, #16]
	ldr	r2, [r3, #8]
	.loc 1 618 46
	ldr	r3, [sp, #24]
	str	r2, [r3, #4]
	.loc 1 619 71
	ldr	r3, [sp, #16]
	ldr	r2, [r3, #12]
	.loc 1 619 46
	ldr	r3, [sp, #24]
	str	r2, [r3, #8]
	.loc 1 620 71
	ldr	r3, [sp, #16]
	ldr	r2, [r3, #16]
	.loc 1 620 46
	ldr	r3, [sp, #24]
	str	r2, [r3, #12]
	.loc 1 621 71
	ldr	r3, [sp, #16]
	ldr	r2, [r3, #20]
	.loc 1 621 46
	ldr	r3, [sp, #24]
	str	r2, [r3, #24]
	.loc 1 623 17
	ldr	r3, .L164+8
	ldrb	r3, [r3]	@ zero_extendqisi2
	.loc 1 623 16
	cmp	r3, #0
	beq	.L145
	.loc 1 625 41
	ldr	r3, [sp, #24]
	movs	r2, #0
	str	r2, [r3, #4]
.L145:
.LBE14:
	.loc 1 631 23
	ldr	r3, [sp, #24]
	ldr	r2, [r3, #4]
	.loc 1 631 40
	ldr	r3, .L164+12
	ldr	r3, [r3]
	subs	r3, r2, r3
	.loc 1 631 58
	bic	r3, r3, #-16777216
	.loc 1 630 12
	ldr	r2, .L164+16
	cmp	r3, r2
	bhi	.L155
	.loc 1 636 40
	ldr	r3, [sp, #24]
	ldr	r3, [r3, #4]
	ldr	r2, .L164+12
	ldr	r2, [r2]
	mov	r1, r2
	mov	r0, r3
	bl	ticks_diff_get
	mov	r2, r0
	.loc 1 637 47
	ldr	r3, [sp, #24]
	ldr	r3, [r3, #8]
	.loc 1 636 96
	add	r2, r2, r3
	.loc 1 636 38
	ldr	r3, [sp, #24]
	str	r2, [r3]
	b	.L156
.L155:
.LBB16:
	.loc 1 643 35
	ldr	r3, .L164+12
	ldr	r2, [r3]
	ldr	r3, [sp, #24]
	ldr	r3, [r3, #4]
	mov	r1, r3
	mov	r0, r2
	bl	ticks_diff_get
	str	r0, [sp, #8]
	.loc 1 644 24
	ldr	r3, [sp, #24]
	ldr	r3, [r3, #8]
	.loc 1 644 16
	ldr	r2, [sp, #8]
	cmp	r2, r3
	bcs	.L157
	.loc 1 646 51
	ldr	r3, [sp, #24]
	ldr	r2, [r3, #8]
	.loc 1 646 74
	ldr	r3, [sp, #8]
	subs	r2, r2, r3
	.loc 1 646 42
	ldr	r3, [sp, #24]
	str	r2, [r3]
	b	.L156
.L157:
	.loc 1 650 42
	ldr	r3, [sp, #24]
	movs	r2, #0
	str	r2, [r3]
.L156:
.LBE16:
	.loc 1 654 39
	ldr	r3, [sp, #24]
	movs	r2, #0
	str	r2, [r3, #4]
	.loc 1 655 39
	ldr	r3, [sp, #24]
	movs	r2, #0
	str	r2, [r3, #8]
	.loc 1 656 39
	ldr	r3, [sp, #24]
	movs	r2, #1
	strb	r2, [r3, #16]
	.loc 1 657 39
	ldr	r3, [sp, #24]
	movs	r2, #0
	str	r2, [r3, #28]
	.loc 1 660 9
	ldr	r0, [sp, #24]
	bl	timer_list_insert
.L143:
.LBE13:
	.loc 1 563 42
	ldr	r3, [sp, #4]
	cmp	r3, #0
	bne	.L158
	.loc 1 563 56 discriminator 1
	ldr	r3, .L164+4
	ldrb	r2, [r3]	@ zero_extendqisi2
	.loc 1 563 76 discriminator 1
	ldr	r3, .L164+4
	ldrb	r3, [r3, #1]	@ zero_extendqisi2
	.loc 1 563 42 discriminator 1
	cmp	r2, r3
	bne	.L158
	.loc 1 663 28
	ldrb	r3, [sp, #31]	@ zero_extendqisi2
	cmp	r3, #0
	bne	.L159
	.loc 1 663 49 discriminator 2
	ldr	r3, .L164
	ldr	r3, [r3]
	.loc 1 663 28 discriminator 2
	ldr	r2, [sp, #20]
	cmp	r2, r3
	beq	.L160
.L159:
	.loc 1 663 28 is_stmt 0 discriminator 3
	movs	r3, #1
	.loc 1 663 28
	b	.L161
.L160:
	.loc 1 663 28 discriminator 4
	movs	r3, #0
.L161:
	.loc 1 663 28 discriminator 6
	and	r3, r3, #1
	uxtb	r3, r3
	.loc 1 664 1 is_stmt 1
	mov	r0, r3
	add	sp, sp, #36
	.cfi_def_cfa_offset 4
	@ sp needed
	ldr	pc, [sp], #4
.L165:
	.align	2
.L164:
	.word	mp_timer_id_head
	.word	m_op_queue
	.word	m_rtc1_reset
	.word	m_ticks_latest
	.word	8388606
	.cfi_endproc
.LFE235:
	.size	list_insertions_handler, .-list_insertions_handler
	.section	.text.compare_reg_update,"ax",%progbits
	.align	1
	.syntax unified
	.thumb
	.thumb_func
	.type	compare_reg_update, %function
compare_reg_update:
.LFB236:
	.loc 1 670 1
	.cfi_startproc
	@ args = 0, pretend = 0, frame = 32
	@ frame_needed = 0, uses_anonymous_args = 0
	push	{r4, lr}
	.cfi_def_cfa_offset 8
	.cfi_offset 4, -8
	.cfi_offset 14, -4
	sub	sp, sp, #32
	.cfi_def_cfa_offset 40
	str	r0, [sp, #4]
	.loc 1 672 26
	ldr	r3, .L171
	ldr	r3, [r3]
	.loc 1 672 8
	cmp	r3, #0
	beq	.L167
.LBB17:
	.loc 1 674 52
	ldr	r3, .L171
	ldr	r3, [r3]
	.loc 1 674 18
	ldr	r3, [r3]
	str	r3, [sp, #28]
	.loc 1 675 36
	bl	rtc1_counter_get
	str	r0, [sp, #24]
	.loc 1 676 18
	ldr	r3, .L171+4
	ldr	r3, [r3]
	str	r3, [sp, #20]
	.loc 1 677 36
	ldr	r1, [sp, #20]
	ldr	r0, [sp, #24]
	bl	ticks_diff_get
	mov	r3, r0
	.loc 1 677 18 discriminator 1
	adds	r3, r3, #3
	str	r3, [sp, #16]
	.loc 1 679 13
	ldr	r3, .L171+8
	ldrb	r3, [r3]	@ zero_extendqisi2
	eor	r3, r3, #1
	uxtb	r3, r3
	.loc 1 679 12
	cmp	r3, #0
	beq	.L168
	.loc 1 682 13
	bl	rtc1_start
.L168:
	.loc 1 685 67
	ldr	r2, [sp, #16]
	ldr	r3, [sp, #28]
	cmp	r3, r2
	it	cc
	movcc	r3, r2
	.loc 1 685 12
	ldr	r2, [sp, #20]
	add	r3, r3, r2
	str	r3, [sp, #20]
	.loc 1 686 12
	ldr	r3, [sp, #20]
	bic	r3, r3, #-16777216
	str	r3, [sp, #20]
	.loc 1 688 9
	ldr	r0, [sp, #20]
	bl	rtc1_compare0_set
	.loc 1 690 37
	bl	rtc1_counter_get
	str	r0, [sp, #12]
	.loc 1 693 14
	ldr	r1, [sp, #24]
	ldr	r0, [sp, #12]
	bl	ticks_diff_get
	mov	r3, r0
	.loc 1 693 64 discriminator 1
	adds	r4, r3, #3
	.loc 1 695 13
	ldr	r1, [sp, #24]
	ldr	r0, [sp, #20]
	bl	ticks_diff_get
	mov	r3, r0
	.loc 1 692 12
	cmp	r4, r3
	bls	.L170
	.loc 1 703 13
	bl	rtc1_counter_get
	mov	r3, r0
	.loc 1 703 13 is_stmt 0 discriminator 1
	mov	r0, r3
	bl	rtc1_compare0_set
	.loc 1 704 13 is_stmt 1
	movs	r0, #47
	bl	nrf_delay_us
	.loc 1 705 13
	bl	timer_timeouts_check_sched
.LBE17:
	.loc 1 715 1
	b	.L170
.L167:
	.loc 1 712 9
	bl	rtc1_stop
.L170:
	.loc 1 715 1
	nop
	add	sp, sp, #32
	.cfi_def_cfa_offset 8
	@ sp needed
	pop	{r4, pc}
.L172:
	.align	2
.L171:
	.word	mp_timer_id_head
	.word	m_ticks_latest
	.word	m_rtc1_running
	.cfi_endproc
.LFE236:
	.size	compare_reg_update, .-compare_reg_update
	.section	.text.timer_list_handler,"ax",%progbits
	.align	1
	.syntax unified
	.thumb
	.thumb_func
	.type	timer_list_handler, %function
timer_list_handler:
.LFB237:
	.loc 1 721 1
	.cfi_startproc
	@ args = 0, pretend = 0, frame = 24
	@ frame_needed = 0, uses_anonymous_args = 0
	push	{lr}
	.cfi_def_cfa_offset 4
	.cfi_offset 14, -4
	sub	sp, sp, #28
	.cfi_def_cfa_offset 32
	.loc 1 722 20
	movs	r3, #0
	str	r3, [sp, #4]
	.loc 1 727 20
	movs	r3, #0
	strb	r3, [sp, #23]
	.loc 1 745 23
	ldr	r3, .L177
	ldr	r3, [r3]
	str	r3, [sp, #16]
	.loc 1 746 25
	ldr	r3, .L177+4
	ldr	r3, [r3]
	str	r3, [sp, #12]
	.loc 1 749 26
	mov	r3, sp
	mov	r0, r3
	bl	elapsed_ticks_acquire
	mov	r3, r0
	strb	r3, [sp, #11]
	.loc 1 752 8
	ldrb	r3, [sp, #11]	@ zero_extendqisi2
	cmp	r3, #0
	beq	.L174
	.loc 1 754 9
	ldr	r3, [sp]
	add	r2, sp, #4
	ldr	r1, [sp, #16]
	mov	r0, r3
	bl	expired_timers_handler
	.loc 1 755 24
	movs	r3, #1
	strb	r3, [sp, #23]
.L174:
	.loc 1 760 9
	ldr	r3, [sp, #4]
	mov	r0, r3
	bl	list_insertions_handler
	mov	r3, r0
	.loc 1 760 8 discriminator 1
	cmp	r3, #0
	beq	.L175
	.loc 1 762 24
	movs	r3, #1
	strb	r3, [sp, #23]
.L175:
	.loc 1 766 8
	ldrb	r3, [sp, #23]	@ zero_extendqisi2
	cmp	r3, #0
	beq	.L176
	.loc 1 768 9
	ldr	r0, [sp, #12]
	bl	compare_reg_update
.L176:
	.loc 1 770 18
	ldr	r3, .L177+8
	movs	r2, #0
	strb	r2, [r3]
	.loc 1 771 1
	nop
	add	sp, sp, #28
	.cfi_def_cfa_offset 4
	@ sp needed
	ldr	pc, [sp], #4
.L178:
	.align	2
.L177:
	.word	m_ticks_latest
	.word	mp_timer_id_head
	.word	m_rtc1_reset
	.cfi_endproc
.LFE237:
	.size	timer_list_handler, .-timer_list_handler
	.section	.text.user_op_enque,"ax",%progbits
	.align	1
	.syntax unified
	.thumb
	.thumb_func
	.type	user_op_enque, %function
user_op_enque:
.LFB238:
	.loc 1 779 1
	.cfi_startproc
	@ args = 0, pretend = 0, frame = 8
	@ frame_needed = 0, uses_anonymous_args = 0
	@ link register save eliminated.
	sub	sp, sp, #8
	.cfi_def_cfa_offset 8
	mov	r3, r0
	strb	r3, [sp, #7]
	.loc 1 780 21
	ldr	r2, .L180
	ldrb	r3, [sp, #7]
	strb	r3, [r2, #1]
	.loc 1 781 1
	nop
	add	sp, sp, #8
	.cfi_def_cfa_offset 0
	@ sp needed
	bx	lr
.L181:
	.align	2
.L180:
	.word	m_op_queue
	.cfi_endproc
.LFE238:
	.size	user_op_enque, .-user_op_enque
	.section	.text.user_op_alloc,"ax",%progbits
	.align	1
	.syntax unified
	.thumb
	.thumb_func
	.type	user_op_alloc, %function
user_op_alloc:
.LFB239:
	.loc 1 791 1
	.cfi_startproc
	@ args = 0, pretend = 0, frame = 16
	@ frame_needed = 0, uses_anonymous_args = 0
	@ link register save eliminated.
	sub	sp, sp, #16
	.cfi_def_cfa_offset 16
	str	r0, [sp, #4]
	.loc 1 795 22
	ldr	r3, .L186
	ldrb	r3, [r3, #1]	@ zero_extendqisi2
	.loc 1 795 10
	adds	r3, r3, #1
	strb	r3, [sp, #15]
	.loc 1 796 27
	ldr	r3, .L186
	ldrb	r3, [r3, #2]	@ zero_extendqisi2
	.loc 1 796 8
	ldrb	r2, [sp, #15]	@ zero_extendqisi2
	cmp	r2, r3
	bne	.L183
	.loc 1 799 14
	movs	r3, #0
	strb	r3, [sp, #15]
.L183:
	.loc 1 801 27
	ldr	r3, .L186
	ldrb	r3, [r3]	@ zero_extendqisi2
	.loc 1 801 8
	ldrb	r2, [sp, #15]	@ zero_extendqisi2
	cmp	r2, r3
	bne	.L184
	.loc 1 804 16
	movs	r3, #0
	b	.L185
.L184:
	.loc 1 807 19
	ldr	r3, [sp, #4]
	ldrb	r2, [sp, #15]
	strb	r2, [r3]
	.loc 1 808 57
	ldr	r3, .L186
	ldrb	r3, [r3, #1]	@ zero_extendqisi2
	mov	r2, r3
	.loc 1 808 19
	mov	r3, r2
	lsls	r3, r3, #1
	add	r3, r3, r2
	lsls	r3, r3, #3
	ldr	r2, .L186
	add	r3, r3, r2
	adds	r3, r3, #4
	str	r3, [sp, #8]
	.loc 1 810 12
	ldr	r3, [sp, #8]
.L185:
	.loc 1 811 1
	mov	r0, r3
	add	sp, sp, #16
	.cfi_def_cfa_offset 0
	@ sp needed
	bx	lr
.L187:
	.align	2
.L186:
	.word	m_op_queue
	.cfi_endproc
.LFE239:
	.size	user_op_alloc, .-user_op_alloc
	.section	.text.timer_start_op_schedule,"ax",%progbits
	.align	1
	.syntax unified
	.thumb
	.thumb_func
	.type	timer_start_op_schedule, %function
timer_start_op_schedule:
.LFB240:
	.loc 1 828 1
	.cfi_startproc
	@ args = 0, pretend = 0, frame = 32
	@ frame_needed = 0, uses_anonymous_args = 0
	push	{lr}
	.cfi_def_cfa_offset 4
	.cfi_offset 14, -4
	sub	sp, sp, #36
	.cfi_def_cfa_offset 40
	str	r0, [sp, #12]
	str	r1, [sp, #8]
	str	r2, [sp, #4]
	str	r3, [sp]
	.loc 1 830 14
	movs	r3, #0
	str	r3, [sp, #28]
.LBB18:
	.loc 1 832 5
	movs	r3, #0
	strb	r3, [sp, #22]
	add	r3, sp, #22
	mov	r0, r3
	bl	app_util_critical_region_enter
	.loc 1 833 35
	add	r3, sp, #23
	mov	r0, r3
	bl	user_op_alloc
	str	r0, [sp, #24]
	.loc 1 834 8
	ldr	r3, [sp, #24]
	cmp	r3, #0
	bne	.L189
	.loc 1 836 18
	movs	r3, #4
	str	r3, [sp, #28]
	b	.L190
.L189:
	.loc 1 840 57
	ldr	r3, [sp, #24]
	movs	r2, #1
	strb	r2, [r3]
	.loc 1 841 57
	ldr	r3, [sp, #24]
	ldr	r2, [sp, #12]
	str	r2, [r3, #4]
	.loc 1 842 59
	bl	rtc1_counter_get
	mov	r2, r0
	.loc 1 842 57 discriminator 1
	ldr	r3, [sp, #24]
	str	r2, [r3, #8]
	.loc 1 843 57
	ldr	r3, [sp, #24]
	ldr	r2, [sp, #8]
	str	r2, [r3, #12]
	.loc 1 844 57
	ldr	r3, [sp, #24]
	ldr	r2, [sp, #4]
	str	r2, [r3, #16]
	.loc 1 845 57
	ldr	r3, [sp, #24]
	ldr	r2, [sp]
	str	r2, [r3, #20]
	.loc 1 847 9
	ldrb	r3, [sp, #23]	@ zero_extendqisi2
	mov	r0, r3
	bl	user_op_enque
.L190:
	.loc 1 849 5
	ldrb	r3, [sp, #22]	@ zero_extendqisi2
	mov	r0, r3
	bl	app_util_critical_region_exit
.LBE18:
	.loc 1 851 8
	ldr	r3, [sp, #28]
	cmp	r3, #0
	bne	.L191
	.loc 1 853 9
	bl	timer_list_handler_sched
.L191:
	.loc 1 856 12
	ldr	r3, [sp, #28]
	.loc 1 857 1
	mov	r0, r3
	add	sp, sp, #36
	.cfi_def_cfa_offset 4
	@ sp needed
	ldr	pc, [sp], #4
	.cfi_endproc
.LFE240:
	.size	timer_start_op_schedule, .-timer_start_op_schedule
	.section	.text.timer_stop_op_schedule,"ax",%progbits
	.align	1
	.syntax unified
	.thumb
	.thumb_func
	.type	timer_stop_op_schedule, %function
timer_stop_op_schedule:
.LFB241:
	.loc 1 870 1
	.cfi_startproc
	@ args = 0, pretend = 0, frame = 24
	@ frame_needed = 0, uses_anonymous_args = 0
	push	{lr}
	.cfi_def_cfa_offset 4
	.cfi_offset 14, -4
	sub	sp, sp, #28
	.cfi_def_cfa_offset 32
	str	r0, [sp, #4]
	mov	r3, r1
	strb	r3, [sp, #3]
	.loc 1 872 14
	movs	r3, #0
	str	r3, [sp, #20]
.LBB19:
	.loc 1 874 5
	movs	r3, #0
	strb	r3, [sp, #14]
	add	r3, sp, #14
	mov	r0, r3
	bl	app_util_critical_region_enter
	.loc 1 875 35
	add	r3, sp, #15
	mov	r0, r3
	bl	user_op_alloc
	str	r0, [sp, #16]
	.loc 1 876 8
	ldr	r3, [sp, #16]
	cmp	r3, #0
	bne	.L194
	.loc 1 878 18
	movs	r3, #4
	str	r3, [sp, #20]
	b	.L195
.L194:
	.loc 1 882 29
	ldr	r3, [sp, #16]
	ldrb	r2, [sp, #3]
	strb	r2, [r3]
	.loc 1 883 27
	ldr	r3, [sp, #16]
	ldr	r2, [sp, #4]
	str	r2, [r3, #4]
	.loc 1 885 9
	ldrb	r3, [sp, #15]	@ zero_extendqisi2
	mov	r0, r3
	bl	user_op_enque
.L195:
	.loc 1 887 5
	ldrb	r3, [sp, #14]	@ zero_extendqisi2
	mov	r0, r3
	bl	app_util_critical_region_exit
.LBE19:
	.loc 1 889 8
	ldr	r3, [sp, #20]
	cmp	r3, #0
	bne	.L196
	.loc 1 891 9
	bl	timer_list_handler_sched
.L196:
	.loc 1 894 12
	ldr	r3, [sp, #20]
	.loc 1 895 1
	mov	r0, r3
	add	sp, sp, #28
	.cfi_def_cfa_offset 4
	@ sp needed
	ldr	pc, [sp], #4
	.cfi_endproc
.LFE241:
	.size	timer_stop_op_schedule, .-timer_stop_op_schedule
	.section	.text.RTC1_IRQHandler,"ax",%progbits
	.align	1
	.global	RTC1_IRQHandler
	.syntax unified
	.thumb
	.thumb_func
	.type	RTC1_IRQHandler, %function
RTC1_IRQHandler:
.LFB242:
	.loc 1 902 1
	.cfi_startproc
	@ args = 0, pretend = 0, frame = 0
	@ frame_needed = 0, uses_anonymous_args = 0
	push	{r3, lr}
	.cfi_def_cfa_offset 8
	.cfi_offset 3, -8
	.cfi_offset 14, -4
	.loc 1 904 13
	ldr	r3, .L199
	.loc 1 904 33
	movs	r2, #0
	str	r2, [r3, #320]
	.loc 1 905 13
	ldr	r3, .L199
	.loc 1 905 33
	movs	r2, #0
	str	r2, [r3, #324]
	.loc 1 906 13
	ldr	r3, .L199
	.loc 1 906 33
	movs	r2, #0
	str	r2, [r3, #328]
	.loc 1 907 13
	ldr	r3, .L199
	.loc 1 907 33
	movs	r2, #0
	str	r2, [r3, #332]
	.loc 1 908 13
	ldr	r3, .L199
	.loc 1 908 33
	movs	r2, #0
	str	r2, [r3, #256]
	.loc 1 909 13
	ldr	r3, .L199
	.loc 1 909 33
	movs	r2, #0
	str	r2, [r3, #260]
	.loc 1 912 5
	bl	timer_timeouts_check
	.loc 1 913 1
	nop
	pop	{r3, pc}
.L200:
	.align	2
.L199:
	.word	1073811456
	.cfi_endproc
.LFE242:
	.size	RTC1_IRQHandler, .-RTC1_IRQHandler
	.section	.text.SWI0_EGU0_IRQHandler,"ax",%progbits
	.align	1
	.global	SWI0_EGU0_IRQHandler
	.syntax unified
	.thumb
	.thumb_func
	.type	SWI0_EGU0_IRQHandler, %function
SWI0_EGU0_IRQHandler:
.LFB243:
	.loc 1 921 1
	.cfi_startproc
	@ args = 0, pretend = 0, frame = 0
	@ frame_needed = 0, uses_anonymous_args = 0
	push	{r3, lr}
	.cfi_def_cfa_offset 8
	.cfi_offset 3, -8
	.cfi_offset 14, -4
	.loc 1 922 5
	bl	timer_list_handler
	.loc 1 923 1
	nop
	pop	{r3, pc}
	.cfi_endproc
.LFE243:
	.size	SWI0_EGU0_IRQHandler, .-SWI0_EGU0_IRQHandler
	.section	.text.app_timer_init,"ax",%progbits
	.align	1
	.global	app_timer_init
	.syntax unified
	.thumb
	.thumb_func
	.type	app_timer_init, %function
app_timer_init:
.LFB244:
	.loc 1 927 1
	.cfi_startproc
	@ args = 0, pretend = 0, frame = 0
	@ frame_needed = 0, uses_anonymous_args = 0
	push	{r3, lr}
	.cfi_def_cfa_offset 8
	.cfi_offset 3, -8
	.cfi_offset 14, -4
	.loc 1 929 5
	bl	rtc1_stop
	.loc 1 932 32
	ldr	r3, .L204
	movs	r2, #0
	strb	r2, [r3]
	.loc 1 933 32
	ldr	r3, .L204
	movs	r2, #0
	strb	r2, [r3, #1]
	.loc 1 934 32
	ldr	r3, .L204
	movs	r2, #11
	strb	r2, [r3, #2]
	.loc 1 936 33
	ldr	r3, .L204+4
	movs	r2, #0
	str	r2, [r3]
	.loc 1 937 33
	ldr	r3, .L204+8
	movs	r2, #0
	strb	r2, [r3]
	.loc 1 938 33
	ldr	r3, .L204+12
	movs	r2, #0
	strb	r2, [r3]
	.loc 1 944 5
	movs	r0, #20
	bl	__NVIC_ClearPendingIRQ
	.loc 1 945 5
	movs	r1, #7
	movs	r0, #20
	bl	__NVIC_SetPriority
	.loc 1 946 5
	movs	r0, #20
	bl	__NVIC_EnableIRQ
	.loc 1 948 5
	movs	r0, #0
	bl	rtc1_init
	.loc 1 950 22
	bl	rtc1_counter_get
	mov	r3, r0
	.loc 1 950 20 discriminator 1
	ldr	r2, .L204+16
	str	r3, [r2]
	.loc 1 952 12
	movs	r3, #0
	.loc 1 953 1
	mov	r0, r3
	pop	{r3, pc}
.L205:
	.align	2
.L204:
	.word	m_op_queue
	.word	mp_timer_id_head
	.word	m_ticks_elapsed_q_read_ind
	.word	m_ticks_elapsed_q_write_ind
	.word	m_ticks_latest
	.cfi_endproc
.LFE244:
	.size	app_timer_init, .-app_timer_init
	.section	.text.app_timer_create,"ax",%progbits
	.align	1
	.global	app_timer_create
	.syntax unified
	.thumb
	.thumb_func
	.type	app_timer_create, %function
app_timer_create:
.LFB245:
	.loc 1 959 1
	.cfi_startproc
	@ args = 0, pretend = 0, frame = 24
	@ frame_needed = 0, uses_anonymous_args = 0
	@ link register save eliminated.
	sub	sp, sp, #24
	.cfi_def_cfa_offset 24
	str	r0, [sp, #12]
	mov	r3, r1
	str	r2, [sp, #4]
	strb	r3, [sp, #11]
	.loc 1 961 5
	ldr	r3, .L212
	ldrb	r3, [r3, #2]	@ zero_extendqisi2
	cmp	r3, #0
	bne	.L207
	.loc 1 961 5 is_stmt 0 discriminator 1
	movs	r3, #8
	.loc 1 961 5
	b	.L208
.L207:
	.loc 1 963 8 is_stmt 1
	ldr	r3, [sp, #4]
	cmp	r3, #0
	bne	.L209
	.loc 1 965 16
	movs	r3, #7
	b	.L208
.L209:
	.loc 1 967 8
	ldr	r3, [sp, #12]
	cmp	r3, #0
	bne	.L210
	.loc 1 969 16
	movs	r3, #7
	b	.L208
.L210:
	.loc 1 971 10
	ldr	r3, [sp, #12]
	ldr	r3, [r3]
	.loc 1 971 37
	ldrb	r3, [r3, #16]	@ zero_extendqisi2
	.loc 1 971 8
	cmp	r3, #0
	beq	.L211
	.loc 1 973 16
	movs	r3, #8
	b	.L208
.L211:
	.loc 1 976 20
	ldr	r3, [sp, #12]
	ldr	r3, [r3]
	str	r3, [sp, #20]
	.loc 1 977 31
	ldr	r3, [sp, #20]
	movs	r2, #0
	strb	r2, [r3, #16]
	.loc 1 978 31
	ldr	r3, [sp, #20]
	ldrb	r2, [sp, #11]
	strb	r2, [r3, #17]
	.loc 1 979 31
	ldr	r3, [sp, #20]
	ldr	r2, [sp, #4]
	str	r2, [r3, #20]
	.loc 1 980 12
	movs	r3, #0
.L208:
	.loc 1 981 1
	mov	r0, r3
	add	sp, sp, #24
	.cfi_def_cfa_offset 0
	@ sp needed
	bx	lr
.L213:
	.align	2
.L212:
	.word	m_op_queue
	.cfi_endproc
.LFE245:
	.size	app_timer_create, .-app_timer_create
	.section	.text.app_timer_start,"ax",%progbits
	.align	1
	.global	app_timer_start
	.syntax unified
	.thumb
	.thumb_func
	.type	app_timer_start, %function
app_timer_start:
.LFB246:
	.loc 1 984 1
	.cfi_startproc
	@ args = 0, pretend = 0, frame = 24
	@ frame_needed = 0, uses_anonymous_args = 0
	push	{lr}
	.cfi_def_cfa_offset 4
	.cfi_offset 14, -4
	sub	sp, sp, #28
	.cfi_def_cfa_offset 32
	str	r0, [sp, #12]
	str	r1, [sp, #8]
	str	r2, [sp, #4]
	.loc 1 986 20
	ldr	r3, [sp, #12]
	str	r3, [sp, #20]
	.loc 1 989 5
	ldr	r3, .L222
	ldrb	r3, [r3, #2]	@ zero_extendqisi2
	cmp	r3, #0
	bne	.L215
	.loc 1 989 5 is_stmt 0 discriminator 1
	movs	r3, #8
	.loc 1 989 5
	b	.L216
.L215:
	.loc 1 991 8 is_stmt 1
	ldr	r3, [sp, #12]
	cmp	r3, #0
	bne	.L217
	.loc 1 993 16
	movs	r3, #8
	b	.L216
.L217:
	.loc 1 995 8
	ldr	r3, [sp, #8]
	cmp	r3, #4
	bhi	.L218
	.loc 1 997 16
	movs	r3, #7
	b	.L216
.L218:
	.loc 1 999 15
	ldr	r3, [sp, #20]
	ldr	r3, [r3, #20]
	.loc 1 999 8
	cmp	r3, #0
	bne	.L219
	.loc 1 1001 16
	movs	r3, #8
	b	.L216
.L219:
	.loc 1 1005 31
	ldr	r3, [sp, #20]
	ldrb	r3, [r3, #17]	@ zero_extendqisi2
	.loc 1 1005 82
	cmp	r3, #1
	bne	.L220
	.loc 1 1005 82 is_stmt 0 discriminator 1
	ldr	r3, [sp, #8]
	b	.L221
.L220:
	.loc 1 1005 82 discriminator 2
	movs	r3, #0
.L221:
	.loc 1 1005 22 is_stmt 1 discriminator 4
	str	r3, [sp, #16]
	.loc 1 1007 12
	ldr	r3, [sp, #4]
	ldr	r2, [sp, #16]
	ldr	r1, [sp, #8]
	ldr	r0, [sp, #20]
	bl	timer_start_op_schedule
	mov	r3, r0
.L216:
	.loc 1 1011 1
	mov	r0, r3
	add	sp, sp, #28
	.cfi_def_cfa_offset 4
	@ sp needed
	ldr	pc, [sp], #4
.L223:
	.align	2
.L222:
	.word	m_op_queue
	.cfi_endproc
.LFE246:
	.size	app_timer_start, .-app_timer_start
	.section	.text.app_timer_stop,"ax",%progbits
	.align	1
	.global	app_timer_stop
	.syntax unified
	.thumb
	.thumb_func
	.type	app_timer_stop, %function
app_timer_stop:
.LFB247:
	.loc 1 1015 1
	.cfi_startproc
	@ args = 0, pretend = 0, frame = 16
	@ frame_needed = 0, uses_anonymous_args = 0
	push	{lr}
	.cfi_def_cfa_offset 4
	.cfi_offset 14, -4
	sub	sp, sp, #20
	.cfi_def_cfa_offset 24
	str	r0, [sp, #4]
	.loc 1 1016 20
	ldr	r3, [sp, #4]
	str	r3, [sp, #12]
	.loc 1 1018 5
	ldr	r3, .L229
	ldrb	r3, [r3, #2]	@ zero_extendqisi2
	cmp	r3, #0
	bne	.L225
	.loc 1 1018 5 is_stmt 0 discriminator 1
	movs	r3, #8
	.loc 1 1018 5
	b	.L226
.L225:
	.loc 1 1020 8 is_stmt 1
	ldr	r3, [sp, #4]
	cmp	r3, #0
	beq	.L227
	.loc 1 1020 38 discriminator 1
	ldr	r3, [sp, #12]
	ldr	r3, [r3, #20]
	.loc 1 1020 28 discriminator 1
	cmp	r3, #0
	bne	.L228
.L227:
	.loc 1 1022 16
	movs	r3, #8
	b	.L226
.L228:
	.loc 1 1025 24
	ldr	r3, [sp, #12]
	movs	r2, #0
	strb	r2, [r3, #16]
	.loc 1 1028 12
	movs	r1, #2
	ldr	r0, [sp, #12]
	bl	timer_stop_op_schedule
	mov	r3, r0
.L226:
	.loc 1 1029 1
	mov	r0, r3
	add	sp, sp, #20
	.cfi_def_cfa_offset 4
	@ sp needed
	ldr	pc, [sp], #4
.L230:
	.align	2
.L229:
	.word	m_op_queue
	.cfi_endproc
.LFE247:
	.size	app_timer_stop, .-app_timer_stop
	.section	.text.app_timer_stop_all,"ax",%progbits
	.align	1
	.global	app_timer_stop_all
	.syntax unified
	.thumb
	.thumb_func
	.type	app_timer_stop_all, %function
app_timer_stop_all:
.LFB248:
	.loc 1 1033 1
	.cfi_startproc
	@ args = 0, pretend = 0, frame = 0
	@ frame_needed = 0, uses_anonymous_args = 0
	push	{r3, lr}
	.cfi_def_cfa_offset 8
	.cfi_offset 3, -8
	.cfi_offset 14, -4
	.loc 1 1035 5
	ldr	r3, .L234
	ldrb	r3, [r3, #2]	@ zero_extendqisi2
	cmp	r3, #0
	bne	.L232
	.loc 1 1035 5 is_stmt 0 discriminator 1
	movs	r3, #8
	.loc 1 1035 5
	b	.L233
.L232:
	.loc 1 1037 12 is_stmt 1
	movs	r1, #3
	movs	r0, #0
	bl	timer_stop_op_schedule
	mov	r3, r0
.L233:
	.loc 1 1038 1
	mov	r0, r3
	pop	{r3, pc}
.L235:
	.align	2
.L234:
	.word	m_op_queue
	.cfi_endproc
.LFE248:
	.size	app_timer_stop_all, .-app_timer_stop_all
	.section	.text.app_timer_cnt_get,"ax",%progbits
	.align	1
	.global	app_timer_cnt_get
	.syntax unified
	.thumb
	.thumb_func
	.type	app_timer_cnt_get, %function
app_timer_cnt_get:
.LFB249:
	.loc 1 1042 1
	.cfi_startproc
	@ args = 0, pretend = 0, frame = 0
	@ frame_needed = 0, uses_anonymous_args = 0
	push	{r3, lr}
	.cfi_def_cfa_offset 8
	.cfi_offset 3, -8
	.cfi_offset 14, -4
	.loc 1 1043 12
	bl	rtc1_counter_get
	mov	r3, r0
	.loc 1 1044 1
	mov	r0, r3
	pop	{r3, pc}
	.cfi_endproc
.LFE249:
	.size	app_timer_cnt_get, .-app_timer_cnt_get
	.section	.text.app_timer_cnt_diff_compute,"ax",%progbits
	.align	1
	.global	app_timer_cnt_diff_compute
	.syntax unified
	.thumb
	.thumb_func
	.type	app_timer_cnt_diff_compute, %function
app_timer_cnt_diff_compute:
.LFB250:
	.loc 1 1049 1
	.cfi_startproc
	@ args = 0, pretend = 0, frame = 8
	@ frame_needed = 0, uses_anonymous_args = 0
	push	{lr}
	.cfi_def_cfa_offset 4
	.cfi_offset 14, -4
	sub	sp, sp, #12
	.cfi_def_cfa_offset 16
	str	r0, [sp, #4]
	str	r1, [sp]
	.loc 1 1050 12
	ldr	r1, [sp]
	ldr	r0, [sp, #4]
	bl	ticks_diff_get
	mov	r3, r0
	.loc 1 1051 1
	mov	r0, r3
	add	sp, sp, #12
	.cfi_def_cfa_offset 4
	@ sp needed
	ldr	pc, [sp], #4
	.cfi_endproc
.LFE250:
	.size	app_timer_cnt_diff_compute, .-app_timer_cnt_diff_compute
	.section	.text.app_timer_pause,"ax",%progbits
	.align	1
	.global	app_timer_pause
	.syntax unified
	.thumb
	.thumb_func
	.type	app_timer_pause, %function
app_timer_pause:
.LFB251:
	.loc 1 1061 1
	.cfi_startproc
	@ args = 0, pretend = 0, frame = 0
	@ frame_needed = 0, uses_anonymous_args = 0
	@ link register save eliminated.
	.loc 1 1062 13
	ldr	r3, .L241
	.loc 1 1062 26
	movs	r2, #1
	str	r2, [r3, #4]
	.loc 1 1063 1
	nop
	bx	lr
.L242:
	.align	2
.L241:
	.word	1073811456
	.cfi_endproc
.LFE251:
	.size	app_timer_pause, .-app_timer_pause
	.section	.text.app_timer_resume,"ax",%progbits
	.align	1
	.global	app_timer_resume
	.syntax unified
	.thumb
	.thumb_func
	.type	app_timer_resume, %function
app_timer_resume:
.LFB252:
	.loc 1 1066 1
	.cfi_startproc
	@ args = 0, pretend = 0, frame = 0
	@ frame_needed = 0, uses_anonymous_args = 0
	@ link register save eliminated.
	.loc 1 1067 13
	ldr	r3, .L244
	.loc 1 1067 27
	movs	r2, #1
	str	r2, [r3]
	.loc 1 1068 1
	nop
	bx	lr
.L245:
	.align	2
.L244:
	.word	1073811456
	.cfi_endproc
.LFE252:
	.size	app_timer_resume, .-app_timer_resume
	.text
.Letext0:
	.file 6 "/opt/SEGGER/segger_embedded_studio_8.22a/include/stdint.h"
	.file 7 "../../../nRF5_SDK_14.2.0/components/libraries/util/sdk_errors.h"
	.file 8 "../../../nRF5_SDK_14.2.0/components/device/nrf52.h"
	.file 9 "/home/sjo/dwm1001-examples/nRF5_SDK_14.2.0/components/libraries/timer/app_timer.h"
	.file 10 "../../../nRF5_SDK_14.2.0/components/libraries/util/app_util_platform.h"
	.file 11 "../../../nRF5_SDK_14.2.0/components/toolchain/system_nrf52.h"