	.cpu cortex-m4
	.arch armv7e-m
	.fpu fpv4-sp-d16
	.eabi_attribute 27, 1
	.eabi_attribute 28, 1
	.eabi_attribute 20, 1
	.eabi_attribute 21, 1
	.eabi_attribute 23, 3
	.eabi_attribute 24, 1
	.eabi_attribute 25, 1
	.eabi_attribute 26, 1
	.eabi_attribute 30, 6
	.eabi_attribute 34, 1
	.eabi_attribute 38, 1
	.eabi_attribute 18, 4
	.file	"nrf_atfifo.c"
	.text
.Ltext0:
	.cfi_sections	.debug_frame
	.file 1 "/home/sjo/dwm1001-examples/nRF5_SDK_14.2.0/components/libraries/atomic_fifo/nrf_atfifo.c"
	.section	.text.nrf_atfifo_wspace_req,"ax",%progbits
	.align	1
	.syntax unified
	.thumb
	.thumb_func
	.type	nrf_atfifo_wspace_req, %function
nrf_atfifo_wspace_req:
.LFB163:
	.file 2 "/home/sjo/dwm1001-examples/nRF5_SDK_14.2.0/components/libraries/atomic_fifo/nrf_atfifo_internal.h"
	.loc 2 353 1
	.cfi_startproc
	@ args = 0, pretend = 0, frame = 24
	@ frame_needed = 0, uses_anonymous_args = 0
	@ link register save eliminated.
	sub	sp, sp, #24
	.cfi_def_cfa_offset 24
	str	r0, [sp, #4]
	str	r1, [sp]
	.loc 2 359 5
	ldr	r3, [sp, #4]
	.syntax unified
@ 359 "/home/sjo/dwm1001-examples/nRF5_SDK_14.2.0/components/libraries/atomic_fifo/nrf_atfifo_internal.h" 1
	1:                                                             
   ldrex r1, [r3, #4]              
   uxth r2, r1                               
                                                               
   ldrh  r0, [r3, #14]             
   add   r2, r0                                  
   ldrh  r0, [r3, #12]              
   cmp   r2, r0                                  
   it    hs                                                    
   subhs r2, r2, r0                     
                                                               
   ldrh  r0, [r3, #8]               
   cmp   r2, r0                                  
   ittt  eq                                                    
   clrexeq                                                     
   moveq r3, #0                                  
   beq.n 2f                                                    
                                                               
   pkhbt r2, r2, r1                 
                                                               
   strex r0, r2, [r3, #4]     
   cmp   r0, #0                                           
   bne.n 1b                                                    
                                                               
   mov r3, #1                                     
2:                                                             

@ 0 "" 2
	.thumb
	.syntax unified
	strb	r3, [sp, #15]
	str	r0, [sp, #20]
	str	r1, [sp, #8]
	str	r2, [sp, #16]
	.loc 2 403 21
	ldr	r2, [sp, #8]
	ldr	r3, [sp]
	str	r2, [r3]
	.loc 2 406 12
	ldrb	r3, [sp, #15]
	uxtb	r3, r3
	.loc 2 407 1
	mov	r0, r3
	add	sp, sp, #24
	.cfi_def_cfa_offset 0
	@ sp needed
	bx	lr
	.cfi_endproc
.LFE163:
	.size	nrf_atfifo_wspace_req, .-nrf_atfifo_wspace_req
	.section	.text.nrf_atfifo_wspace_close,"ax",%progbits
	.align	1
	.syntax unified
	.thumb
	.thumb_func
	.type	nrf_atfifo_wspace_close, %function
nrf_atfifo_wspace_close:
.LFB164:
	.loc 2 411 1
	.cfi_startproc
	@ args = 0, pretend = 0, frame = 16
	@ frame_needed = 0, uses_anonymous_args = 0
	@ link register save eliminated.
	sub	sp, sp, #16
	.cfi_def_cfa_offset 16
	str	r0, [sp, #4]
	.loc 2 415 5
	ldr	r1, [sp, #4]
	.syntax unified
@ 415 "/home/sjo/dwm1001-examples/nRF5_SDK_14.2.0/components/libraries/atomic_fifo/nrf_atfifo_internal.h" 1
	1:                                                         
   ldrex r3, [r1, #4]          
   pkhbt r3,r3, r3, lsl #16     
                                                           
   strex r2, r3, [r1, #4] 
   cmp   r2, #0                                       
   bne.n 1b                                                

@ 0 "" 2
	.thumb
	.syntax unified
	str	r2, [sp, #12]
	str	r3, [sp, #8]
	.loc 2 435 1
	nop
	add	sp, sp, #16
	.cfi_def_cfa_offset 0
	@ sp needed
	bx	lr
	.cfi_endproc
.LFE164:
	.size	nrf_atfifo_wspace_close, .-nrf_atfifo_wspace_close
	.section	.text.nrf_atfifo_rspace_req,"ax",%progbits
	.align	1
	.syntax unified
	.thumb
	.thumb_func
	.type	nrf_atfifo_rspace_req, %function
nrf_atfifo_rspace_req:
.LFB165:
	.loc 2 439 1
	.cfi_startproc
	@ args = 0, pretend = 0, frame = 24
	@ frame_needed = 0, uses_anonymous_args = 0
	@ link register save eliminated.
	sub	sp, sp, #24
	.cfi_def_cfa_offset 24
	str	r0, [sp, #4]
	str	r1, [sp]
	.loc 2 445 5
	ldr	r3, [sp, #4]
	.syntax unified
@ 445 "/home/sjo/dwm1001-examples/nRF5_SDK_14.2.0/components/libraries/atomic_fifo/nrf_atfifo_internal.h" 1
	1:                                                         
   ldrex r1, [r3, #8]          
   uxth r2, r1, ror #16                  
                                                           
   ldrh  r0, [r3, #6]           
   cmp   r2, r0                              
   ittt  eq                                                
   clrexeq                                                 
   moveq r3, #0                              
   beq.n   2f                                              
                                                           
   ldrh  r0, [r3, #14]         
   add   r2, r0                              
   ldrh  r0, [r3, #12]          
   cmp   r2, r0                              
   it    hs                                                
   subhs r2, r2, r0                 
                                                           
   pkhbt r2, r1, r2, lsl #16    
                                                           
   strex r0, r2, [r3, #8] 
   cmp   r0, #0                                       
   bne.n 1b                                                
                                                           
   mov r3, #1                                 
2:                                                         

@ 0 "" 2
	.thumb
	.syntax unified
	strb	r3, [sp, #15]
	str	r0, [sp, #20]
	str	r1, [sp, #8]
	str	r2, [sp, #16]
	.loc 2 489 21
	ldr	r2, [sp, #8]
	ldr	r3, [sp]
	str	r2, [r3]
	.loc 2 492 12
	ldrb	r3, [sp, #15]
	uxtb	r3, r3
	.loc 2 493 1
	mov	r0, r3
	add	sp, sp, #24
	.cfi_def_cfa_offset 0
	@ sp needed
	bx	lr
	.cfi_endproc
.LFE165:
	.size	nrf_atfifo_rspace_req, .-nrf_atfifo_rspace_req
	.section	.text.nrf_atfifo_rspace_close,"ax",%progbits
	.align	1
	.syntax unified
	.thumb
	.thumb_func
	.type	nrf_atfifo_rspace_close, %function
nrf_atfifo_rspace_close:
.LFB166:
	.loc 2 497 1
	.cfi_startproc
	@ args = 0, pretend = 0, frame = 16
	@ frame_needed = 0, uses_anonymous_args = 0
	@ link register save eliminated.
	sub	sp, sp, #16
	.cfi_def_cfa_offset 16
	str	r0, [sp, #4]
	.loc 2 501 5
	ldr	r1, [sp, #4]
	.syntax unified
@ 501 "/home/sjo/dwm1001-examples/nRF5_SDK_14.2.0/components/libraries/atomic_fifo/nrf_atfifo_internal.h" 1
	1:                                                         
   ldrex r3, [r1, #8]          
   pkhtb r3,r3, r3, asr #16     
                                                           
   strex r2, r3, [r1, #8] 
   cmp   r2, #0                                       
   bne.n 1b                                                

@ 0 "" 2
	.thumb
	.syntax unified
	str	r2, [sp, #12]
	str	r3, [sp, #8]
	.loc 2 521 1
	nop
	add	sp, sp, #16
	.cfi_def_cfa_offset 0
	@ sp needed
	bx	lr
	.cfi_endproc
.LFE166:
	.size	nrf_atfifo_rspace_close, .-nrf_atfifo_rspace_close
	.section	.text.nrf_atfifo_space_clear,"ax",%progbits
	.align	1
	.syntax unified
	.thumb
	.thumb_func
	.type	nrf_atfifo_space_clear, %function
nrf_atfifo_space_clear:
.LFB167:
	.loc 2 525 1
	.cfi_startproc
	@ args = 0, pretend = 0, frame = 24
	@ frame_needed = 0, uses_anonymous_args = 0
	@ link register save eliminated.
	sub	sp, sp, #24
	.cfi_def_cfa_offset 24
	str	r0, [sp, #4]
	.loc 2 530 5
	ldr	r3, [sp, #4]
	.syntax unified
@ 530 "/home/sjo/dwm1001-examples/nRF5_SDK_14.2.0/components/libraries/atomic_fifo/nrf_atfifo_internal.h" 1
	1:                                                               
   ldrex   r1, [r3, #8]              
   ldrh    r2, [r3, #6]           
   cmp     r1, r1, ror #16                     
                                                                 
   mov     r0, #0                                  
                                                                 
   itett   ne                                                    
   uxthne  r1, r1                              
   orreq   r2, r2, r2, lsl #16        
   orrne   r2, r1, r2, lsl #16        
                                                                 
   bne.n   2f                                                    
                                                                 
   ldr     r1, [r3, #4]              
   cmp     r1, r1, ror #16                     
   it      eq                                                    
   moveq   r0, #1                                   
                                                                 
2:                                                               
   strex   r1, r2, [r3, #8] 
   cmp     r1, #0                                       
   bne.n     1b                                                  

@ 0 "" 2
	.thumb
	.syntax unified
	strb	r0, [sp, #15]
	str	r1, [sp, #20]
	str	r2, [sp, #16]
	.loc 2 570 12
	ldrb	r3, [sp, #15]
	uxtb	r3, r3
	.loc 2 571 1
	mov	r0, r3
	add	sp, sp, #24
	.cfi_def_cfa_offset 0
	@ sp needed
	bx	lr
	.cfi_endproc
.LFE167:
	.size	nrf_atfifo_space_clear, .-nrf_atfifo_space_clear
	.section	.text.nrf_atfifo_init,"ax",%progbits
	.align	1
	.global	nrf_atfifo_init
	.syntax unified
	.thumb
	.thumb_func
	.type	nrf_atfifo_init, %function
nrf_atfifo_init:
.LFB168:
	.loc 1 52 1
	.cfi_startproc
	@ args = 0, pretend = 0, frame = 16
	@ frame_needed = 0, uses_anonymous_args = 0
	@ link register save eliminated.
	sub	sp, sp, #16
	.cfi_def_cfa_offset 16
	str	r0, [sp, #12]
	str	r1, [sp, #8]
	mov	r1, r2
	mov	r2, r3
	mov	r3, r1	@ movhi
	strh	r3, [sp, #6]	@ movhi
	mov	r3, r2	@ movhi
	strh	r3, [sp, #4]	@ movhi
	.loc 1 53 8
	ldr	r3, [sp, #8]
	cmp	r3, #0
	bne	.L10
	.loc 1 55 16
	movs	r3, #14
	b	.L11
.L10:
	.loc 1 57 11
	ldrh	r3, [sp, #6]
	ldrh	r2, [sp, #4]
	udiv	r1, r3, r2
	mul	r2, r1, r2
	subs	r3, r3, r2
	uxth	r3, r3
	.loc 1 57 8
	cmp	r3, #0
	beq	.L12
	.loc 1 59 16
	movs	r3, #9
	b	.L11
.L12:
	.loc 1 62 23
	ldr	r3, [sp, #12]
	ldr	r2, [sp, #8]
	str	r2, [r3]
	.loc 1 63 23
	ldr	r3, [sp, #12]
	movs	r2, #0
	str	r2, [r3, #4]
	.loc 1 64 23
	ldr	r3, [sp, #12]
	movs	r2, #0
	str	r2, [r3, #8]
	.loc 1 65 23
	ldr	r3, [sp, #12]
	ldrh	r2, [sp, #6]	@ movhi
	strh	r2, [r3, #12]	@ movhi
	.loc 1 66 23
	ldr	r3, [sp, #12]
	ldrh	r2, [sp, #4]	@ movhi
	strh	r2, [r3, #14]	@ movhi
	.loc 1 68 12
	movs	r3, #0
.L11:
	.loc 1 69 1
	mov	r0, r3
	add	sp, sp, #16
	.cfi_def_cfa_offset 0
	@ sp needed
	bx	lr
	.cfi_endproc
.LFE168:
	.size	nrf_atfifo_init, .-nrf_atfifo_init
	.section	.text.nrf_atfifo_clear,"ax",%progbits
	.align	1
	.global	nrf_atfifo_clear
	.syntax unified
	.thumb
	.thumb_func
	.type	nrf_atfifo_clear, %function
nrf_atfifo_clear:
.LFB169:
	.loc 1 73 1
	.cfi_startproc
	@ args = 0, pretend = 0, frame = 16
	@ frame_needed = 0, uses_anonymous_args = 0
	push	{lr}
	.cfi_def_cfa_offset 4
	.cfi_offset 14, -4
	sub	sp, sp, #20
	.cfi_def_cfa_offset 24
	str	r0, [sp, #4]
	.loc 1 74 21
	ldr	r0, [sp, #4]
	bl	nrf_atfifo_space_clear
	mov	r3, r0
	strb	r3, [sp, #15]
	.loc 1 75 35
	ldrb	r3, [sp, #15]	@ zero_extendqisi2
	cmp	r3, #0
	beq	.L14
	.loc 1 75 35 is_stmt 0 discriminator 1
	movs	r3, #0
	.loc 1 75 35
	b	.L16
.L14:
	.loc 1 75 35 discriminator 2
	movs	r3, #17
.L16:
	.loc 1 76 1 is_stmt 1
	mov	r0, r3
	add	sp, sp, #20
	.cfi_def_cfa_offset 4
	@ sp needed
	ldr	pc, [sp], #4
	.cfi_endproc
.LFE169:
	.size	nrf_atfifo_clear, .-nrf_atfifo_clear
	.section	.text.nrf_atfifo_alloc_put,"ax",%progbits
	.align	1
	.global	nrf_atfifo_alloc_put
	.syntax unified
	.thumb
	.thumb_func
	.type	nrf_atfifo_alloc_put, %function
nrf_atfifo_alloc_put:
.LFB170:
	.loc 1 80 1
	.cfi_startproc
	@ args = 0, pretend = 0, frame = 32
	@ frame_needed = 0, uses_anonymous_args = 0
	push	{lr}
	.cfi_def_cfa_offset 4
	.cfi_offset 14, -4
	sub	sp, sp, #36
	.cfi_def_cfa_offset 40
	str	r0, [sp, #12]
	str	r1, [sp, #8]
	str	r2, [sp, #4]
	str	r3, [sp]
	.loc 1 83 21
	add	r3, sp, #20
	mov	r1, r3
	ldr	r0, [sp, #12]
	bl	nrf_atfifo_item_alloc
	str	r0, [sp, #28]
	.loc 1 84 8
	ldr	r3, [sp, #28]
	cmp	r3, #0
	bne	.L18
	.loc 1 86 16
	movs	r3, #4
	b	.L21
.L18:
	.loc 1 89 5
	ldr	r2, [sp, #4]
	ldr	r1, [sp, #8]
	ldr	r0, [sp, #28]
	bl	memcpy
	.loc 1 91 15
	add	r3, sp, #20
	mov	r1, r3
	ldr	r0, [sp, #12]
	bl	nrf_atfifo_item_put
	mov	r3, r0
	strb	r3, [sp, #27]
	.loc 1 92 8
	ldr	r3, [sp]
	cmp	r3, #0
	beq	.L20
	.loc 1 94 20
	ldr	r3, [sp]
	ldrb	r2, [sp, #27]
	strb	r2, [r3]
.L20:
	.loc 1 96 12
	movs	r3, #0
.L21:
	.loc 1 97 1
	mov	r0, r3
	add	sp, sp, #36
	.cfi_def_cfa_offset 4
	@ sp needed
	ldr	pc, [sp], #4
	.cfi_endproc
.LFE170:
	.size	nrf_atfifo_alloc_put, .-nrf_atfifo_alloc_put
	.section	.text.nrf_atfifo_item_alloc,"ax",%progbits
	.align	1
	.global	nrf_atfifo_item_alloc
	.syntax unified
	.thumb
	.thumb_func
	.type	nrf_atfifo_item_alloc, %function
nrf_atfifo_item_alloc:
.LFB171:
	.loc 1 101 1
	.cfi_startproc
	@ args = 0, pretend = 0, frame = 8
	@ frame_needed = 0, uses_anonymous_args = 0
	push	{lr}
	.cfi_def_cfa_offset 4
	.cfi_offset 14, -4
	sub	sp, sp, #12
	.cfi_def_cfa_offset 16
	str	r0, [sp, #4]
	str	r1, [sp]
	.loc 1 102 9
	ldr	r3, [sp]
	mov	r1, r3
	ldr	r0, [sp, #4]
	bl	nrf_atfifo_wspace_req
	mov	r3, r0
	.loc 1 102 8 discriminator 1
	cmp	r3, #0
	beq	.L23
	.loc 1 104 34
	ldr	r3, [sp, #4]
	ldr	r3, [r3]
	.loc 1 104 70
	ldr	r2, [sp]
	ldrh	r2, [r2]
	.loc 1 104 44
	add	r3, r3, r2
	b	.L24
.L23:
	.loc 1 106 12
	movs	r3, #0
.L24:
	.loc 1 107 1
	mov	r0, r3
	add	sp, sp, #12
	.cfi_def_cfa_offset 4
	@ sp needed
	ldr	pc, [sp], #4
	.cfi_endproc
.LFE171:
	.size	nrf_atfifo_item_alloc, .-nrf_atfifo_item_alloc
	.section	.text.nrf_atfifo_item_put,"ax",%progbits
	.align	1
	.global	nrf_atfifo_item_put
	.syntax unified
	.thumb
	.thumb_func
	.type	nrf_atfifo_item_put, %function
nrf_atfifo_item_put:
.LFB172:
	.loc 1 111 1
	.cfi_startproc
	@ args = 0, pretend = 0, frame = 8
	@ frame_needed = 0, uses_anonymous_args = 0
	push	{lr}
	.cfi_def_cfa_offset 4
	.cfi_offset 14, -4
	sub	sp, sp, #12
	.cfi_def_cfa_offset 16
	str	r0, [sp, #4]
	str	r1, [sp]
	.loc 1 112 34
	ldr	r3, [sp]
	ldrh	r2, [r3]
	.loc 1 112 67
	ldr	r3, [sp]
	ldrh	r3, [r3, #2]
	.loc 1 112 8
	cmp	r2, r3
	bne	.L26
	.loc 1 114 9
	ldr	r0, [sp, #4]
	bl	nrf_atfifo_wspace_close
	.loc 1 115 16
	movs	r3, #1
	b	.L27
.L26:
	.loc 1 117 12
	movs	r3, #0
.L27:
	.loc 1 118 1
	mov	r0, r3
	add	sp, sp, #12
	.cfi_def_cfa_offset 4
	@ sp needed
	ldr	pc, [sp], #4
	.cfi_endproc
.LFE172:
	.size	nrf_atfifo_item_put, .-nrf_atfifo_item_put
	.section	.text.nrf_atfifo_get_free,"ax",%progbits
	.align	1
	.global	nrf_atfifo_get_free
	.syntax unified
	.thumb
	.thumb_func
	.type	nrf_atfifo_get_free, %function
nrf_atfifo_get_free:
.LFB173:
	.loc 1 122 1
	.cfi_startproc
	@ args = 0, pretend = 0, frame = 32
	@ frame_needed = 0, uses_anonymous_args = 0
	push	{lr}
	.cfi_def_cfa_offset 4
	.cfi_offset 14, -4
	sub	sp, sp, #36
	.cfi_def_cfa_offset 40
	str	r0, [sp, #12]
	str	r1, [sp, #8]
	str	r2, [sp, #4]
	str	r3, [sp]
	.loc 1 125 24
	add	r3, sp, #20
	mov	r1, r3
	ldr	r0, [sp, #12]
	bl	nrf_atfifo_item_get
	str	r0, [sp, #28]
	.loc 1 126 8
	ldr	r3, [sp, #28]
	cmp	r3, #0
	bne	.L29
	.loc 1 128 16
	movs	r3, #5
	b	.L32
.L29:
	.loc 1 131 5
	ldr	r2, [sp, #4]
	ldr	r1, [sp, #28]
	ldr	r0, [sp, #8]
	bl	memcpy
	.loc 1 133 16
	add	r3, sp, #20
	mov	r1, r3
	ldr	r0, [sp, #12]
	bl	nrf_atfifo_item_free
	mov	r3, r0
	strb	r3, [sp, #27]
	.loc 1 134 8
	ldr	r3, [sp]
	cmp	r3, #0
	beq	.L31
	.loc 1 136 21
	ldr	r3, [sp]
	ldrb	r2, [sp, #27]
	strb	r2, [r3]
.L31:
	.loc 1 138 12
	movs	r3, #0
.L32:
	.loc 1 139 1
	mov	r0, r3
	add	sp, sp, #36
	.cfi_def_cfa_offset 4
	@ sp needed
	ldr	pc, [sp], #4
	.cfi_endproc
.LFE173:
	.size	nrf_atfifo_get_free, .-nrf_atfifo_get_free
	.section	.text.nrf_atfifo_item_get,"ax",%progbits
	.align	1
	.global	nrf_atfifo_item_get
	.syntax unified
	.thumb
	.thumb_func
	.type	nrf_atfifo_item_get, %function
nrf_atfifo_item_get:
.LFB174:
	.loc 1 143 1
	.cfi_startproc
	@ args = 0, pretend = 0, frame = 8
	@ frame_needed = 0, uses_anonymous_args = 0
	push	{lr}
	.cfi_def_cfa_offset 4
	.cfi_offset 14, -4
	sub	sp, sp, #12
	.cfi_def_cfa_offset 16
	str	r0, [sp, #4]
	str	r1, [sp]
	.loc 1 144 9
	ldr	r3, [sp]
	mov	r1, r3
	ldr	r0, [sp, #4]
	bl	nrf_atfifo_rspace_req
	mov	r3, r0
	.loc 1 144 8 discriminator 1
	cmp	r3, #0
	beq	.L34
	.loc 1 146 34
	ldr	r3, [sp, #4]
	ldr	r3, [r3]
	.loc 1 146 70
	ldr	r2, [sp]
	ldrh	r2, [r2, #2]
	.loc 1 146 44
	add	r3, r3, r2
	b	.L35
.L34:
	.loc 1 148 12
	movs	r3, #0
.L35:
	.loc 1 149 1
	mov	r0, r3
	add	sp, sp, #12
	.cfi_def_cfa_offset 4
	@ sp needed
	ldr	pc, [sp], #4
	.cfi_endproc
.LFE174:
	.size	nrf_atfifo_item_get, .-nrf_atfifo_item_get
	.section	.text.nrf_atfifo_item_free,"ax",%progbits
	.align	1
	.global	nrf_atfifo_item_free
	.syntax unified
	.thumb
	.thumb_func
	.type	nrf_atfifo_item_free, %function
nrf_atfifo_item_free:
.LFB175:
	.loc 1 153 1
	.cfi_startproc
	@ args = 0, pretend = 0, frame = 8
	@ frame_needed = 0, uses_anonymous_args = 0
	push	{lr}
	.cfi_def_cfa_offset 4
	.cfi_offset 14, -4
	sub	sp, sp, #12
	.cfi_def_cfa_offset 16
	str	r0, [sp, #4]
	str	r1, [sp]
	.loc 1 154 34
	ldr	r3, [sp]
	ldrh	r2, [r3]
	.loc 1 154 67
	ldr	r3, [sp]
	ldrh	r3, [r3, #2]
	.loc 1 154 8
	cmp	r2, r3
	bne	.L37
	.loc 1 156 9
	ldr	r0, [sp, #4]
	bl	nrf_atfifo_rspace_close
	.loc 1 157 16
	movs	r3, #1
	b	.L38
.L37:
	.loc 1 159 12
	movs	r3, #0
.L38:
	.loc 1 160 1
	mov	r0, r3
	add	sp, sp, #12
	.cfi_def_cfa_offset 4
	@ sp needed
	ldr	pc, [sp], #4
	.cfi_endproc
.LFE175:
	.size	nrf_atfifo_item_free, .-nrf_atfifo_item_free
	.text
.Letext0:
	.file 3 "/opt/SEGGER/segger_embedded_studio_8.22a/include/string.h"
	.file 4 "/opt/SEGGER/segger_embedded_studio_8.22a/include/stdint.h"
	.file 5 "../../../nRF5_SDK_14.2.0/components/libraries/util/sdk_errors.h"
	.file 6 "/home/sjo/dwm1001-examples/nRF5_SDK_14.2.0/components/libraries/atomic_fifo/nrf_atfifo.h"